
kernel:	file format elf32-i386


Disassembly of section .text:

00100000 <.text>:
  100000: 02 b0 ad 1b 00 00            	addb	7085(%eax), %dh
  100006: 00 00                        	addb	%al, (%eax)
  100008: fe 4f 52                     	decb	82(%edi)
  10000b: e4 fa                        	inb	$250, %al

0010000c <start>:
  10000c: fa                           	cli
  10000d: bc 00 60 10 00               	movl	$1073152, %esp
  100012: e8 28 05 00 00               	calll	0x10053f <kmain>
  100017: f4                           	hlt

00100018 <move_cursor>:
  100018: 55                           	pushl	%ebp
  100019: 89 e5                        	movl	%esp, %ebp
  10001b: 83 ec 18                     	subl	$24, %esp
  10001e: a0 01 60 10 00               	movb	1073153, %al
  100023: 0f b6 d0                     	movzbl	%al, %edx
  100026: 89 d0                        	movl	%edx, %eax
  100028: c1 e0 02                     	shll	$2, %eax
  10002b: 01 d0                        	addl	%edx, %eax
  10002d: c1 e0 04                     	shll	$4, %eax
  100030: 89 c2                        	movl	%eax, %edx
  100032: a0 00 60 10 00               	movb	1073152, %al
  100037: 0f b6 c0                     	movzbl	%al, %eax
  10003a: 01 d0                        	addl	%edx, %eax
  10003c: 66 89 45 f6                  	movw	%ax, -10(%ebp)
  100040: 83 ec 08                     	subl	$8, %esp
  100043: 6a 0e                        	pushl	$14
  100045: 68 d4 03 00 00               	pushl	$980
  10004a: e8 6a 04 00 00               	calll	0x1004b9 <out_byte>
  10004f: 83 c4 10                     	addl	$16, %esp
  100052: 66 8b 45 f6                  	movw	-10(%ebp), %ax
  100056: 66 c1 e8 08                  	shrw	$8, %ax
  10005a: 0f b6 c0                     	movzbl	%al, %eax
  10005d: 83 ec 08                     	subl	$8, %esp
  100060: 50                           	pushl	%eax
  100061: 68 d5 03 00 00               	pushl	$981
  100066: e8 4e 04 00 00               	calll	0x1004b9 <out_byte>
  10006b: 83 c4 10                     	addl	$16, %esp
  10006e: 83 ec 08                     	subl	$8, %esp
  100071: 6a 0f                        	pushl	$15
  100073: 68 d4 03 00 00               	pushl	$980
  100078: e8 3c 04 00 00               	calll	0x1004b9 <out_byte>
  10007d: 83 c4 10                     	addl	$16, %esp
  100080: 66 8b 45 f6                  	movw	-10(%ebp), %ax
  100084: 0f b6 c0                     	movzbl	%al, %eax
  100087: 83 ec 08                     	subl	$8, %esp
  10008a: 50                           	pushl	%eax
  10008b: 68 d5 03 00 00               	pushl	$981
  100090: e8 24 04 00 00               	calll	0x1004b9 <out_byte>
  100095: 83 c4 10                     	addl	$16, %esp
  100098: 90                           	nop
  100099: c9                           	leave
  10009a: c3                           	retl

0010009b <scroll>:
  10009b: 55                           	pushl	%ebp
  10009c: 89 e5                        	movl	%esp, %ebp
  10009e: 83 ec 10                     	subl	$16, %esp
  1000a1: c6 45 fb 0f                  	movb	$15, -5(%ebp)
  1000a5: 0f b6 45 fb                  	movzbl	-5(%ebp), %eax
  1000a9: c1 e0 08                     	shll	$8, %eax
  1000ac: 83 c8 20                     	orl	$32, %eax
  1000af: 66 89 45 f8                  	movw	%ax, -8(%ebp)
  1000b3: a0 01 60 10 00               	movb	1073153, %al
  1000b8: 3c 18                        	cmpb	$24, %al
  1000ba: 76 67                        	jbe	0x100123 <scroll+0x88>
  1000bc: c7 45 fc 00 00 00 00         	movl	$0, -4(%ebp)
  1000c3: eb 26                        	jmp	0x1000eb <scroll+0x50>
  1000c5: a1 00 30 10 00               	movl	1060864, %eax
  1000ca: 8b 55 fc                     	movl	-4(%ebp), %edx
  1000cd: 83 c2 50                     	addl	$80, %edx
  1000d0: 01 d2                        	addl	%edx, %edx
  1000d2: 8d 0c 10                     	leal	(%eax,%edx), %ecx
  1000d5: 8b 15 00 30 10 00            	movl	1060864, %edx
  1000db: 8b 45 fc                     	movl	-4(%ebp), %eax
  1000de: 01 c0                        	addl	%eax, %eax
  1000e0: 01 c2                        	addl	%eax, %edx
  1000e2: 66 8b 01                     	movw	(%ecx), %ax
  1000e5: 66 89 02                     	movw	%ax, (%edx)
  1000e8: ff 45 fc                     	incl	-4(%ebp)
  1000eb: 81 7d fc 7f 07 00 00         	cmpl	$1919, -4(%ebp)
  1000f2: 7e d1                        	jle	0x1000c5 <scroll+0x2a>
  1000f4: c7 45 fc 80 07 00 00         	movl	$1920, -4(%ebp)
  1000fb: eb 16                        	jmp	0x100113 <scroll+0x78>
  1000fd: 8b 15 00 30 10 00            	movl	1060864, %edx
  100103: 8b 45 fc                     	movl	-4(%ebp), %eax
  100106: 01 c0                        	addl	%eax, %eax
  100108: 01 c2                        	addl	%eax, %edx
  10010a: 8b 45 f8                     	movl	-8(%ebp), %eax
  10010d: 66 89 02                     	movw	%ax, (%edx)
  100110: ff 45 fc                     	incl	-4(%ebp)
  100113: 81 7d fc cf 07 00 00         	cmpl	$1999, -4(%ebp)
  10011a: 7e e1                        	jle	0x1000fd <scroll+0x62>
  10011c: c6 05 01 60 10 00 18         	movb	$24, 1073153
  100123: 90                           	nop
  100124: c9                           	leave
  100125: c3                           	retl

00100126 <monitor_put>:
  100126: 55                           	pushl	%ebp
  100127: 89 e5                        	movl	%esp, %ebp
  100129: 83 ec 28                     	subl	$40, %esp
  10012c: 8b 45 08                     	movl	8(%ebp), %eax
  10012f: 88 45 e4                     	movb	%al, -28(%ebp)
  100132: c6 45 f7 00                  	movb	$0, -9(%ebp)
  100136: c6 45 f6 0f                  	movb	$15, -10(%ebp)
  10013a: 0f b6 45 f7                  	movzbl	-9(%ebp), %eax
  10013e: c1 e0 04                     	shll	$4, %eax
  100141: 88 c2                        	movb	%al, %dl
  100143: 8a 45 f6                     	movb	-10(%ebp), %al
  100146: 83 e0 0f                     	andl	$15, %eax
  100149: 09 d0                        	orl	%edx, %eax
  10014b: 88 45 f5                     	movb	%al, -11(%ebp)
  10014e: 0f b6 45 f5                  	movzbl	-11(%ebp), %eax
  100152: c1 e0 08                     	shll	$8, %eax
  100155: 66 89 45 f2                  	movw	%ax, -14(%ebp)
  100159: 0f b6 45 f5                  	movzbl	-11(%ebp), %eax
  10015d: c1 e0 08                     	shll	$8, %eax
  100160: 83 c8 20                     	orl	$32, %eax
  100163: 66 89 45 f0                  	movw	%ax, -16(%ebp)
  100167: 80 7d e4 08                  	cmpb	$8, -28(%ebp)
  10016b: 75 4d                        	jne	0x1001ba <monitor_put+0x94>
  10016d: a0 00 60 10 00               	movb	1073152, %al
  100172: 84 c0                        	testb	%al, %al
  100174: 74 44                        	je	0x1001ba <monitor_put+0x94>
  100176: 8b 0d 00 30 10 00            	movl	1060864, %ecx
  10017c: a0 01 60 10 00               	movb	1073153, %al
  100181: 0f b6 d0                     	movzbl	%al, %edx
  100184: 89 d0                        	movl	%edx, %eax
  100186: c1 e0 02                     	shll	$2, %eax
  100189: 01 d0                        	addl	%edx, %eax
  10018b: c1 e0 04                     	shll	$4, %eax
  10018e: 89 c2                        	movl	%eax, %edx
  100190: a0 00 60 10 00               	movb	1073152, %al
  100195: 0f b6 c0                     	movzbl	%al, %eax
  100198: 01 d0                        	addl	%edx, %eax
  10019a: 05 ff ff ff 7f               	addl	$2147483647, %eax
  10019f: 01 c0                        	addl	%eax, %eax
  1001a1: 01 c8                        	addl	%ecx, %eax
  1001a3: 89 45 ec                     	movl	%eax, -20(%ebp)
  1001a6: 8b 55 ec                     	movl	-20(%ebp), %edx
  1001a9: 8b 45 f0                     	movl	-16(%ebp), %eax
  1001ac: 66 89 02                     	movw	%ax, (%edx)
  1001af: a0 00 60 10 00               	movb	1073152, %al
  1001b4: 48                           	decl	%eax
  1001b5: a2 00 60 10 00               	movb	%al, 1073152
  1001ba: 80 7d e4 09                  	cmpb	$9, -28(%ebp)
  1001be: 75 1b                        	jne	0x1001db <monitor_put+0xb5>
  1001c0: a0 00 60 10 00               	movb	1073152, %al
  1001c5: 84 c0                        	testb	%al, %al
  1001c7: 74 12                        	je	0x1001db <monitor_put+0xb5>
  1001c9: a0 00 60 10 00               	movb	1073152, %al
  1001ce: 83 c0 08                     	addl	$8, %eax
  1001d1: 83 e0 f8                     	andl	$-8, %eax
  1001d4: a2 00 60 10 00               	movb	%al, 1073152
  1001d9: eb 67                        	jmp	0x100242 <monitor_put+0x11c>
  1001db: 80 7d e4 0d                  	cmpb	$13, -28(%ebp)
  1001df: 75 07                        	jne	0x1001e8 <monitor_put+0xc2>
  1001e1: e8 a0 02 00 00               	calll	0x100486 <entry_output>
  1001e6: eb 5a                        	jmp	0x100242 <monitor_put+0x11c>
  1001e8: 80 7d e4 0a                  	cmpb	$10, -28(%ebp)
  1001ec: 75 07                        	jne	0x1001f5 <monitor_put+0xcf>
  1001ee: e8 ae 02 00 00               	calll	0x1004a1 <newline_add>
  1001f3: eb 4d                        	jmp	0x100242 <monitor_put+0x11c>
  1001f5: 80 7d e4 1f                  	cmpb	$31, -28(%ebp)
  1001f9: 7e 47                        	jle	0x100242 <monitor_put+0x11c>
  1001fb: 8b 0d 00 30 10 00            	movl	1060864, %ecx
  100201: a0 01 60 10 00               	movb	1073153, %al
  100206: 0f b6 d0                     	movzbl	%al, %edx
  100209: 89 d0                        	movl	%edx, %eax
  10020b: c1 e0 02                     	shll	$2, %eax
  10020e: 01 d0                        	addl	%edx, %eax
  100210: c1 e0 04                     	shll	$4, %eax
  100213: 89 c2                        	movl	%eax, %edx
  100215: a0 00 60 10 00               	movb	1073152, %al
  10021a: 0f b6 c0                     	movzbl	%al, %eax
  10021d: 01 d0                        	addl	%edx, %eax
  10021f: 01 c0                        	addl	%eax, %eax
  100221: 01 c8                        	addl	%ecx, %eax
  100223: 89 45 ec                     	movl	%eax, -20(%ebp)
  100226: 66 0f be 55 e4               	movsbw	-28(%ebp), %dx
  10022b: 66 8b 45 f2                  	movw	-14(%ebp), %ax
  10022f: 09 d0                        	orl	%edx, %eax
  100231: 8b 55 ec                     	movl	-20(%ebp), %edx
  100234: 66 89 02                     	movw	%ax, (%edx)
  100237: a0 00 60 10 00               	movb	1073152, %al
  10023c: 40                           	incl	%eax
  10023d: a2 00 60 10 00               	movb	%al, 1073152
  100242: a0 00 60 10 00               	movb	1073152, %al
  100247: 3c 4f                        	cmpb	$79, %al
  100249: 76 12                        	jbe	0x10025d <monitor_put+0x137>
  10024b: c6 05 00 60 10 00 00         	movb	$0, 1073152
  100252: a0 01 60 10 00               	movb	1073153, %al
  100257: 40                           	incl	%eax
  100258: a2 01 60 10 00               	movb	%al, 1073153
  10025d: e8 39 fe ff ff               	calll	0x10009b <scroll>
  100262: e8 b1 fd ff ff               	calll	0x100018 <move_cursor>
  100267: 90                           	nop
  100268: c9                           	leave
  100269: c3                           	retl

0010026a <monitor_clear>:
  10026a: 55                           	pushl	%ebp
  10026b: 89 e5                        	movl	%esp, %ebp
  10026d: 83 ec 18                     	subl	$24, %esp
  100270: c6 45 f3 0f                  	movb	$15, -13(%ebp)
  100274: 0f b6 45 f3                  	movzbl	-13(%ebp), %eax
  100278: c1 e0 08                     	shll	$8, %eax
  10027b: 83 c8 20                     	orl	$32, %eax
  10027e: 66 89 45 f0                  	movw	%ax, -16(%ebp)
  100282: c7 45 f4 00 00 00 00         	movl	$0, -12(%ebp)
  100289: eb 16                        	jmp	0x1002a1 <monitor_clear+0x37>
  10028b: 8b 15 00 30 10 00            	movl	1060864, %edx
  100291: 8b 45 f4                     	movl	-12(%ebp), %eax
  100294: 01 c0                        	addl	%eax, %eax
  100296: 01 c2                        	addl	%eax, %edx
  100298: 8b 45 f0                     	movl	-16(%ebp), %eax
  10029b: 66 89 02                     	movw	%ax, (%edx)
  10029e: ff 45 f4                     	incl	-12(%ebp)
  1002a1: 81 7d f4 cf 07 00 00         	cmpl	$1999, -12(%ebp)
  1002a8: 7e e1                        	jle	0x10028b <monitor_clear+0x21>
  1002aa: c6 05 00 60 10 00 00         	movb	$0, 1073152
  1002b1: c6 05 01 60 10 00 00         	movb	$0, 1073153
  1002b8: e8 5b fd ff ff               	calll	0x100018 <move_cursor>
  1002bd: 90                           	nop
  1002be: c9                           	leave
  1002bf: c3                           	retl

001002c0 <monitor_write>:
  1002c0: 55                           	pushl	%ebp
  1002c1: 89 e5                        	movl	%esp, %ebp
  1002c3: 83 ec 18                     	subl	$24, %esp
  1002c6: c7 45 f4 00 00 00 00         	movl	$0, -12(%ebp)
  1002cd: eb 21                        	jmp	0x1002f0 <monitor_write+0x30>
  1002cf: 8b 45 f4                     	movl	-12(%ebp), %eax
  1002d2: 8d 50 01                     	leal	1(%eax), %edx
  1002d5: 89 55 f4                     	movl	%edx, -12(%ebp)
  1002d8: 89 c2                        	movl	%eax, %edx
  1002da: 8b 45 08                     	movl	8(%ebp), %eax
  1002dd: 01 d0                        	addl	%edx, %eax
  1002df: 8a 00                        	movb	(%eax), %al
  1002e1: 0f be c0                     	movsbl	%al, %eax
  1002e4: 83 ec 0c                     	subl	$12, %esp
  1002e7: 50                           	pushl	%eax
  1002e8: e8 39 fe ff ff               	calll	0x100126 <monitor_put>
  1002ed: 83 c4 10                     	addl	$16, %esp
  1002f0: 8b 55 f4                     	movl	-12(%ebp), %edx
  1002f3: 8b 45 08                     	movl	8(%ebp), %eax
  1002f6: 01 d0                        	addl	%edx, %eax
  1002f8: 8a 00                        	movb	(%eax), %al
  1002fa: 84 c0                        	testb	%al, %al
  1002fc: 75 d1                        	jne	0x1002cf <monitor_write+0xf>
  1002fe: 90                           	nop
  1002ff: 90                           	nop
  100300: c9                           	leave
  100301: c3                           	retl

00100302 <monitor_write_dec>:
  100302: 55                           	pushl	%ebp
  100303: 89 e5                        	movl	%esp, %ebp
  100305: 83 ec 58                     	subl	$88, %esp
  100308: 83 7d 08 00                  	cmpl	$0, 8(%ebp)
  10030c: 75 12                        	jne	0x100320 <monitor_write_dec+0x1e>
  10030e: 83 ec 0c                     	subl	$12, %esp
  100311: 6a 30                        	pushl	$48
  100313: e8 0e fe ff ff               	calll	0x100126 <monitor_put>
  100318: 83 c4 10                     	addl	$16, %esp
  10031b: e9 9e 00 00 00               	jmp	0x1003be <monitor_write_dec+0xbc>
  100320: 8b 45 08                     	movl	8(%ebp), %eax
  100323: 89 45 f4                     	movl	%eax, -12(%ebp)
  100326: c7 45 f0 00 00 00 00         	movl	$0, -16(%ebp)
  10032d: eb 38                        	jmp	0x100367 <monitor_write_dec+0x65>
  10032f: 8b 45 f4                     	movl	-12(%ebp), %eax
  100332: b9 0a 00 00 00               	movl	$10, %ecx
  100337: 99                           	cltd
  100338: f7 f9                        	idivl	%ecx
  10033a: 89 d0                        	movl	%edx, %eax
  10033c: 83 c0 30                     	addl	$48, %eax
  10033f: 88 c2                        	movb	%al, %dl
  100341: 8d 4d cc                     	leal	-52(%ebp), %ecx
  100344: 8b 45 f0                     	movl	-16(%ebp), %eax
  100347: 01 c8                        	addl	%ecx, %eax
  100349: 88 10                        	movb	%dl, (%eax)
  10034b: 8b 4d f4                     	movl	-12(%ebp), %ecx
  10034e: b8 67 66 66 66               	movl	$1717986919, %eax
  100353: f7 e9                        	imull	%ecx
  100355: 89 d0                        	movl	%edx, %eax
  100357: c1 f8 02                     	sarl	$2, %eax
  10035a: c1 f9 1f                     	sarl	$31, %ecx
  10035d: 89 ca                        	movl	%ecx, %edx
  10035f: 29 d0                        	subl	%edx, %eax
  100361: 89 45 f4                     	movl	%eax, -12(%ebp)
  100364: ff 45 f0                     	incl	-16(%ebp)
  100367: 83 7d f4 00                  	cmpl	$0, -12(%ebp)
  10036b: 7f c2                        	jg	0x10032f <monitor_write_dec+0x2d>
  10036d: 8d 55 cc                     	leal	-52(%ebp), %edx
  100370: 8b 45 f0                     	movl	-16(%ebp), %eax
  100373: 01 d0                        	addl	%edx, %eax
  100375: c6 00 00                     	movb	$0, (%eax)
  100378: 8b 45 f0                     	movl	-16(%ebp), %eax
  10037b: 8d 50 ff                     	leal	-1(%eax), %edx
  10037e: 89 55 f0                     	movl	%edx, -16(%ebp)
  100381: c6 44 05 ac 00               	movb	$0, -84(%ebp,%eax)
  100386: c7 45 ec 00 00 00 00         	movl	$0, -20(%ebp)
  10038d: eb 1a                        	jmp	0x1003a9 <monitor_write_dec+0xa7>
  10038f: 8b 55 ec                     	movl	-20(%ebp), %edx
  100392: 8d 42 01                     	leal	1(%edx), %eax
  100395: 89 45 ec                     	movl	%eax, -20(%ebp)
  100398: 8b 45 f0                     	movl	-16(%ebp), %eax
  10039b: 8d 48 ff                     	leal	-1(%eax), %ecx
  10039e: 89 4d f0                     	movl	%ecx, -16(%ebp)
  1003a1: 8a 54 15 cc                  	movb	-52(%ebp,%edx), %dl
  1003a5: 88 54 05 ac                  	movb	%dl, -84(%ebp,%eax)
  1003a9: 83 7d f0 00                  	cmpl	$0, -16(%ebp)
  1003ad: 79 e0                        	jns	0x10038f <monitor_write_dec+0x8d>
  1003af: 83 ec 0c                     	subl	$12, %esp
  1003b2: 8d 45 ac                     	leal	-84(%ebp), %eax
  1003b5: 50                           	pushl	%eax
  1003b6: e8 05 ff ff ff               	calll	0x1002c0 <monitor_write>
  1003bb: 83 c4 10                     	addl	$16, %esp
  1003be: c9                           	leave
  1003bf: c3                           	retl

001003c0 <monitor_write_hex>:
  1003c0: 55                           	pushl	%ebp
  1003c1: 89 e5                        	movl	%esp, %ebp
  1003c3: 83 ec 18                     	subl	$24, %esp
  1003c6: 83 ec 0c                     	subl	$12, %esp
  1003c9: 68 a4 30 10 00               	pushl	$1061028
  1003ce: e8 ed fe ff ff               	calll	0x1002c0 <monitor_write>
  1003d3: 83 c4 10                     	addl	$16, %esp
  1003d6: c6 45 f7 01                  	movb	$1, -9(%ebp)
  1003da: c7 45 f0 1c 00 00 00         	movl	$28, -16(%ebp)
  1003e1: eb 5f                        	jmp	0x100442 <monitor_write_hex+0x82>
  1003e3: 8b 45 f0                     	movl	-16(%ebp), %eax
  1003e6: 8b 55 08                     	movl	8(%ebp), %edx
  1003e9: 88 c1                        	movb	%al, %cl
  1003eb: d3 ea                        	shrl	%cl, %edx
  1003ed: 89 d0                        	movl	%edx, %eax
  1003ef: 83 e0 0f                     	andl	$15, %eax
  1003f2: 89 45 ec                     	movl	%eax, -20(%ebp)
  1003f5: 83 7d ec 00                  	cmpl	$0, -20(%ebp)
  1003f9: 75 06                        	jne	0x100401 <monitor_write_hex+0x41>
  1003fb: 80 7d f7 00                  	cmpb	$0, -9(%ebp)
  1003ff: 75 3c                        	jne	0x10043d <monitor_write_hex+0x7d>
  100401: 83 7d ec 09                  	cmpl	$9, -20(%ebp)
  100405: 7e 1b                        	jle	0x100422 <monitor_write_hex+0x62>
  100407: c6 45 f7 00                  	movb	$0, -9(%ebp)
  10040b: 8b 45 ec                     	movl	-20(%ebp), %eax
  10040e: 83 c0 57                     	addl	$87, %eax
  100411: 0f be c0                     	movsbl	%al, %eax
  100414: 83 ec 0c                     	subl	$12, %esp
  100417: 50                           	pushl	%eax
  100418: e8 09 fd ff ff               	calll	0x100126 <monitor_put>
  10041d: 83 c4 10                     	addl	$16, %esp
  100420: eb 1c                        	jmp	0x10043e <monitor_write_hex+0x7e>
  100422: c6 45 f7 00                  	movb	$0, -9(%ebp)
  100426: 8b 45 ec                     	movl	-20(%ebp), %eax
  100429: 83 c0 30                     	addl	$48, %eax
  10042c: 0f be c0                     	movsbl	%al, %eax
  10042f: 83 ec 0c                     	subl	$12, %esp
  100432: 50                           	pushl	%eax
  100433: e8 ee fc ff ff               	calll	0x100126 <monitor_put>
  100438: 83 c4 10                     	addl	$16, %esp
  10043b: eb 01                        	jmp	0x10043e <monitor_write_hex+0x7e>
  10043d: 90                           	nop
  10043e: 83 6d f0 04                  	subl	$4, -16(%ebp)
  100442: 83 7d f0 00                  	cmpl	$0, -16(%ebp)
  100446: 7f 9b                        	jg	0x1003e3 <monitor_write_hex+0x23>
  100448: 8b 45 08                     	movl	8(%ebp), %eax
  10044b: 83 e0 0f                     	andl	$15, %eax
  10044e: 89 45 ec                     	movl	%eax, -20(%ebp)
  100451: 83 7d ec 09                  	cmpl	$9, -20(%ebp)
  100455: 7e 17                        	jle	0x10046e <monitor_write_hex+0xae>
  100457: 8b 45 ec                     	movl	-20(%ebp), %eax
  10045a: 83 c0 57                     	addl	$87, %eax
  10045d: 0f be c0                     	movsbl	%al, %eax
  100460: 83 ec 0c                     	subl	$12, %esp
  100463: 50                           	pushl	%eax
  100464: e8 bd fc ff ff               	calll	0x100126 <monitor_put>
  100469: 83 c4 10                     	addl	$16, %esp
  10046c: eb 15                        	jmp	0x100483 <monitor_write_hex+0xc3>
  10046e: 8b 45 ec                     	movl	-20(%ebp), %eax
  100471: 83 c0 30                     	addl	$48, %eax
  100474: 0f be c0                     	movsbl	%al, %eax
  100477: 83 ec 0c                     	subl	$12, %esp
  10047a: 50                           	pushl	%eax
  10047b: e8 a6 fc ff ff               	calll	0x100126 <monitor_put>
  100480: 83 c4 10                     	addl	$16, %esp
  100483: 90                           	nop
  100484: c9                           	leave
  100485: c3                           	retl

00100486 <entry_output>:
  100486: 55                           	pushl	%ebp
  100487: 89 e5                        	movl	%esp, %ebp
  100489: 83 ec 08                     	subl	$8, %esp
  10048c: e8 10 00 00 00               	calll	0x1004a1 <newline_add>
  100491: 83 ec 0c                     	subl	$12, %esp
  100494: 6a 3e                        	pushl	$62
  100496: e8 8b fc ff ff               	calll	0x100126 <monitor_put>
  10049b: 83 c4 10                     	addl	$16, %esp
  10049e: 90                           	nop
  10049f: c9                           	leave
  1004a0: c3                           	retl

001004a1 <newline_add>:
  1004a1: 55                           	pushl	%ebp
  1004a2: 89 e5                        	movl	%esp, %ebp
  1004a4: c6 05 00 60 10 00 00         	movb	$0, 1073152
  1004ab: a0 01 60 10 00               	movb	1073153, %al
  1004b0: 40                           	incl	%eax
  1004b1: a2 01 60 10 00               	movb	%al, 1073153
  1004b6: 90                           	nop
  1004b7: 5d                           	popl	%ebp
  1004b8: c3                           	retl

001004b9 <out_byte>:
  1004b9: 55                           	pushl	%ebp
  1004ba: 89 e5                        	movl	%esp, %ebp
  1004bc: 83 ec 08                     	subl	$8, %esp
  1004bf: 8b 45 08                     	movl	8(%ebp), %eax
  1004c2: 8b 55 0c                     	movl	12(%ebp), %edx
  1004c5: 66 89 45 fc                  	movw	%ax, -4(%ebp)
  1004c9: 88 d0                        	movb	%dl, %al
  1004cb: 88 45 f8                     	movb	%al, -8(%ebp)
  1004ce: 8b 55 fc                     	movl	-4(%ebp), %edx
  1004d1: 8a 45 f8                     	movb	-8(%ebp), %al
  1004d4: ee                           	outb	%al, %dx
  1004d5: 90                           	nop
  1004d6: c9                           	leave
  1004d7: c3                           	retl

001004d8 <in_byte>:
  1004d8: 55                           	pushl	%ebp
  1004d9: 89 e5                        	movl	%esp, %ebp
  1004db: 83 ec 14                     	subl	$20, %esp
  1004de: 8b 45 08                     	movl	8(%ebp), %eax
  1004e1: 66 89 45 ec                  	movw	%ax, -20(%ebp)
  1004e5: 8b 45 ec                     	movl	-20(%ebp), %eax
  1004e8: 89 c2                        	movl	%eax, %edx
  1004ea: ec                           	inb	%dx, %al
  1004eb: 88 45 ff                     	movb	%al, -1(%ebp)
  1004ee: 8a 45 ff                     	movb	-1(%ebp), %al
  1004f1: c9                           	leave
  1004f2: c3                           	retl

001004f3 <in_word>:
  1004f3: 55                           	pushl	%ebp
  1004f4: 89 e5                        	movl	%esp, %ebp
  1004f6: 83 ec 14                     	subl	$20, %esp
  1004f9: 8b 45 08                     	movl	8(%ebp), %eax
  1004fc: 66 89 45 ec                  	movw	%ax, -20(%ebp)
  100500: 8b 45 ec                     	movl	-20(%ebp), %eax
  100503: 89 c2                        	movl	%eax, %edx
  100505: 66 ed                        	inw	%dx, %ax
  100507: 66 89 45 fe                  	movw	%ax, -2(%ebp)
  10050b: 66 8b 45 fe                  	movw	-2(%ebp), %ax
  10050f: c9                           	leave
  100510: c3                           	retl

00100511 <memset>:
  100511: 55                           	pushl	%ebp
  100512: 89 e5                        	movl	%esp, %ebp
  100514: 83 ec 10                     	subl	$16, %esp
  100517: 8b 45 08                     	movl	8(%ebp), %eax
  10051a: 89 45 fc                     	movl	%eax, -4(%ebp)
  10051d: eb 0e                        	jmp	0x10052d <memset+0x1c>
  10051f: 8b 45 fc                     	movl	-4(%ebp), %eax
  100522: 8d 50 01                     	leal	1(%eax), %edx
  100525: 89 55 fc                     	movl	%edx, -4(%ebp)
  100528: 8b 55 0c                     	movl	12(%ebp), %edx
  10052b: 88 10                        	movb	%dl, (%eax)
  10052d: 8b 45 10                     	movl	16(%ebp), %eax
  100530: 8d 50 ff                     	leal	-1(%eax), %edx
  100533: 89 55 10                     	movl	%edx, 16(%ebp)
  100536: 85 c0                        	testl	%eax, %eax
  100538: 75 e5                        	jne	0x10051f <memset+0xe>
  10053a: 8b 45 08                     	movl	8(%ebp), %eax
  10053d: c9                           	leave
  10053e: c3                           	retl

0010053f <kmain>:
  10053f: 55                           	pushl	%ebp
  100540: 89 e5                        	movl	%esp, %ebp
  100542: 83 ec 08                     	subl	$8, %esp
  100545: e8 20 fd ff ff               	calll	0x10026a <monitor_clear>
  10054a: 83 ec 0c                     	subl	$12, %esp
  10054d: 68 a8 30 10 00               	pushl	$1061032
  100552: e8 69 fd ff ff               	calll	0x1002c0 <monitor_write>
  100557: 83 c4 10                     	addl	$16, %esp
  10055a: 83 ec 0c                     	subl	$12, %esp
  10055d: 68 bd 30 10 00               	pushl	$1061053
  100562: e8 59 fd ff ff               	calll	0x1002c0 <monitor_write>
  100567: 83 c4 10                     	addl	$16, %esp
  10056a: 83 ec 0c                     	subl	$12, %esp
  10056d: 68 d0 30 10 00               	pushl	$1061072
  100572: e8 49 fd ff ff               	calll	0x1002c0 <monitor_write>
  100577: 83 c4 10                     	addl	$16, %esp
  10057a: 83 ec 0c                     	subl	$12, %esp
  10057d: 68 fc 30 10 00               	pushl	$1061116
  100582: e8 39 fd ff ff               	calll	0x1002c0 <monitor_write>
  100587: 83 c4 10                     	addl	$16, %esp
  10058a: e8 6c 00 00 00               	calll	0x1005fb <init_descriptor_tables>
  10058f: 83 ec 0c                     	subl	$12, %esp
  100592: 68 29 31 10 00               	pushl	$1061161
  100597: e8 24 fd ff ff               	calll	0x1002c0 <monitor_write>
  10059c: 83 c4 10                     	addl	$16, %esp
  10059f: 83 ec 0c                     	subl	$12, %esp
  1005a2: 68 3d 31 10 00               	pushl	$1061181
  1005a7: e8 14 fd ff ff               	calll	0x1002c0 <monitor_write>
  1005ac: 83 c4 10                     	addl	$16, %esp
  1005af: e8 64 08 00 00               	calll	0x100e18 <keyboard_init>
  1005b4: 83 ec 0c                     	subl	$12, %esp
  1005b7: 68 29 31 10 00               	pushl	$1061161
  1005bc: e8 ff fc ff ff               	calll	0x1002c0 <monitor_write>
  1005c1: 83 c4 10                     	addl	$16, %esp
  1005c4: 83 ec 0c                     	subl	$12, %esp
  1005c7: 68 5c 31 10 00               	pushl	$1061212
  1005cc: e8 ef fc ff ff               	calll	0x1002c0 <monitor_write>
  1005d1: 83 c4 10                     	addl	$16, %esp
  1005d4: e8 b5 15 00 00               	calll	0x101b8e <initialize_paging>
  1005d9: 83 ec 0c                     	subl	$12, %esp
  1005dc: 68 29 31 10 00               	pushl	$1061161
  1005e1: e8 da fc ff ff               	calll	0x1002c0 <monitor_write>
  1005e6: 83 c4 10                     	addl	$16, %esp
  1005e9: 83 ec 0c                     	subl	$12, %esp
  1005ec: 68 86 31 10 00               	pushl	$1061254
  1005f1: e8 ca fc ff ff               	calll	0x1002c0 <monitor_write>
  1005f6: 83 c4 10                     	addl	$16, %esp
  1005f9: eb fe                        	jmp	0x1005f9 <kmain+0xba>

001005fb <init_descriptor_tables>:
  1005fb: 55                           	pushl	%ebp
  1005fc: 89 e5                        	movl	%esp, %ebp
  1005fe: 83 ec 08                     	subl	$8, %esp
  100601: e8 08 00 00 00               	calll	0x10060e <init_gdt>
  100606: e8 b1 00 00 00               	calll	0x1006bc <init_idt>
  10060b: 90                           	nop
  10060c: c9                           	leave
  10060d: c3                           	retl

0010060e <init_gdt>:
  10060e: 55                           	pushl	%ebp
  10060f: 89 e5                        	movl	%esp, %ebp
  100611: 83 ec 08                     	subl	$8, %esp
  100614: b8 20 60 10 00               	movl	$1073184, %eax
  100619: a3 62 68 10 00               	movl	%eax, 1075298
  10061e: 66 c7 05 60 68 10 00 27 00   	movw	$39, 1075296
  100627: 83 ec 0c                     	subl	$12, %esp
  10062a: 6a 00                        	pushl	$0
  10062c: 6a 00                        	pushl	$0
  10062e: 6a 00                        	pushl	$0
  100630: 6a 00                        	pushl	$0
  100632: 6a 00                        	pushl	$0
  100634: e8 e5 01 00 00               	calll	0x10081e <gdt_set_gates>
  100639: 83 c4 20                     	addl	$32, %esp
  10063c: 83 ec 0c                     	subl	$12, %esp
  10063f: 68 cf 00 00 00               	pushl	$207
  100644: 68 9a 00 00 00               	pushl	$154
  100649: 6a ff                        	pushl	$-1
  10064b: 6a 00                        	pushl	$0
  10064d: 6a 01                        	pushl	$1
  10064f: e8 ca 01 00 00               	calll	0x10081e <gdt_set_gates>
  100654: 83 c4 20                     	addl	$32, %esp
  100657: 83 ec 0c                     	subl	$12, %esp
  10065a: 68 cf 00 00 00               	pushl	$207
  10065f: 68 92 00 00 00               	pushl	$146
  100664: 6a ff                        	pushl	$-1
  100666: 6a 00                        	pushl	$0
  100668: 6a 02                        	pushl	$2
  10066a: e8 af 01 00 00               	calll	0x10081e <gdt_set_gates>
  10066f: 83 c4 20                     	addl	$32, %esp
  100672: 83 ec 0c                     	subl	$12, %esp
  100675: 68 cf 00 00 00               	pushl	$207
  10067a: 68 fa 00 00 00               	pushl	$250
  10067f: 6a ff                        	pushl	$-1
  100681: 6a 00                        	pushl	$0
  100683: 6a 03                        	pushl	$3
  100685: e8 94 01 00 00               	calll	0x10081e <gdt_set_gates>
  10068a: 83 c4 20                     	addl	$32, %esp
  10068d: 83 ec 0c                     	subl	$12, %esp
  100690: 68 cf 00 00 00               	pushl	$207
  100695: 68 f2 00 00 00               	pushl	$242
  10069a: 6a ff                        	pushl	$-1
  10069c: 6a 00                        	pushl	$0
  10069e: 6a 04                        	pushl	$4
  1006a0: e8 79 01 00 00               	calll	0x10081e <gdt_set_gates>
  1006a5: 83 c4 20                     	addl	$32, %esp
  1006a8: b8 60 68 10 00               	movl	$1075296, %eax
  1006ad: 83 ec 0c                     	subl	$12, %esp
  1006b0: 50                           	pushl	%eax
  1006b1: e8 2a 04 00 00               	calll	0x100ae0 <gdt_flush>
  1006b6: 83 c4 10                     	addl	$16, %esp
  1006b9: 90                           	nop
  1006ba: c9                           	leave
  1006bb: c3                           	retl

001006bc <init_idt>:
  1006bc: 55                           	pushl	%ebp
  1006bd: 89 e5                        	movl	%esp, %ebp
  1006bf: 83 ec 18                     	subl	$24, %esp
  1006c2: b8 60 60 10 00               	movl	$1073248, %eax
  1006c7: a3 6a 68 10 00               	movl	%eax, 1075306
  1006cc: 66 c7 05 68 68 10 00 ff 07   	movw	$2047, 1075304
  1006d5: 83 ec 04                     	subl	$4, %esp
  1006d8: 68 00 08 00 00               	pushl	$2048
  1006dd: 6a 00                        	pushl	$0
  1006df: 68 60 60 10 00               	pushl	$1073248
  1006e4: e8 28 fe ff ff               	calll	0x100511 <memset>
  1006e9: 83 c4 10                     	addl	$16, %esp
  1006ec: 83 ec 08                     	subl	$8, %esp
  1006ef: 6a 11                        	pushl	$17
  1006f1: 6a 20                        	pushl	$32
  1006f3: e8 c1 fd ff ff               	calll	0x1004b9 <out_byte>
  1006f8: 83 c4 10                     	addl	$16, %esp
  1006fb: 83 ec 08                     	subl	$8, %esp
  1006fe: 6a 11                        	pushl	$17
  100700: 68 a0 00 00 00               	pushl	$160
  100705: e8 af fd ff ff               	calll	0x1004b9 <out_byte>
  10070a: 83 c4 10                     	addl	$16, %esp
  10070d: 83 ec 08                     	subl	$8, %esp
  100710: 6a 20                        	pushl	$32
  100712: 6a 21                        	pushl	$33
  100714: e8 a0 fd ff ff               	calll	0x1004b9 <out_byte>
  100719: 83 c4 10                     	addl	$16, %esp
  10071c: 83 ec 08                     	subl	$8, %esp
  10071f: 6a 28                        	pushl	$40
  100721: 68 a1 00 00 00               	pushl	$161
  100726: e8 8e fd ff ff               	calll	0x1004b9 <out_byte>
  10072b: 83 c4 10                     	addl	$16, %esp
  10072e: 83 ec 08                     	subl	$8, %esp
  100731: 6a 04                        	pushl	$4
  100733: 6a 21                        	pushl	$33
  100735: e8 7f fd ff ff               	calll	0x1004b9 <out_byte>
  10073a: 83 c4 10                     	addl	$16, %esp
  10073d: 83 ec 08                     	subl	$8, %esp
  100740: 6a 02                        	pushl	$2
  100742: 68 a1 00 00 00               	pushl	$161
  100747: e8 6d fd ff ff               	calll	0x1004b9 <out_byte>
  10074c: 83 c4 10                     	addl	$16, %esp
  10074f: 83 ec 08                     	subl	$8, %esp
  100752: 6a 01                        	pushl	$1
  100754: 6a 21                        	pushl	$33
  100756: e8 5e fd ff ff               	calll	0x1004b9 <out_byte>
  10075b: 83 c4 10                     	addl	$16, %esp
  10075e: 83 ec 08                     	subl	$8, %esp
  100761: 6a 01                        	pushl	$1
  100763: 68 a1 00 00 00               	pushl	$161
  100768: e8 4c fd ff ff               	calll	0x1004b9 <out_byte>
  10076d: 83 c4 10                     	addl	$16, %esp
  100770: 83 ec 08                     	subl	$8, %esp
  100773: 6a 00                        	pushl	$0
  100775: 6a 21                        	pushl	$33
  100777: e8 3d fd ff ff               	calll	0x1004b9 <out_byte>
  10077c: 83 c4 10                     	addl	$16, %esp
  10077f: 83 ec 08                     	subl	$8, %esp
  100782: 6a 00                        	pushl	$0
  100784: 68 a1 00 00 00               	pushl	$161
  100789: e8 2b fd ff ff               	calll	0x1004b9 <out_byte>
  10078e: 83 c4 10                     	addl	$16, %esp
  100791: c7 45 f4 00 00 00 00         	movl	$0, -12(%ebp)
  100798: eb 2c                        	jmp	0x1007c6 <init_idt+0x10a>
  10079a: 8b 45 f4                     	movl	-12(%ebp), %eax
  10079d: 0f b6 c0                     	movzbl	%al, %eax
  1007a0: 83 ec 0c                     	subl	$12, %esp
  1007a3: 50                           	pushl	%eax
  1007a4: e8 74 01 00 00               	calll	0x10091d <fetch_isr>
  1007a9: 83 c4 10                     	addl	$16, %esp
  1007ac: 8b 55 f4                     	movl	-12(%ebp), %edx
  1007af: 0f b6 d2                     	movzbl	%dl, %edx
  1007b2: 68 8e 00 00 00               	pushl	$142
  1007b7: 6a 08                        	pushl	$8
  1007b9: 50                           	pushl	%eax
  1007ba: 52                           	pushl	%edx
  1007bb: e8 f5 00 00 00               	calll	0x1008b5 <idt_set_gates>
  1007c0: 83 c4 10                     	addl	$16, %esp
  1007c3: ff 45 f4                     	incl	-12(%ebp)
  1007c6: 83 7d f4 1f                  	cmpl	$31, -12(%ebp)
  1007ca: 7e ce                        	jle	0x10079a <init_idt+0xde>
  1007cc: c7 45 f0 20 00 00 00         	movl	$32, -16(%ebp)
  1007d3: eb 2f                        	jmp	0x100804 <init_idt+0x148>
  1007d5: 8b 45 f0                     	movl	-16(%ebp), %eax
  1007d8: 83 e8 20                     	subl	$32, %eax
  1007db: 0f b6 c0                     	movzbl	%al, %eax
  1007de: 83 ec 0c                     	subl	$12, %esp
  1007e1: 50                           	pushl	%eax
  1007e2: e8 55 02 00 00               	calll	0x100a3c <fetch_irq>
  1007e7: 83 c4 10                     	addl	$16, %esp
  1007ea: 8b 55 f0                     	movl	-16(%ebp), %edx
  1007ed: 0f b6 d2                     	movzbl	%dl, %edx
  1007f0: 68 8e 00 00 00               	pushl	$142
  1007f5: 6a 08                        	pushl	$8
  1007f7: 50                           	pushl	%eax
  1007f8: 52                           	pushl	%edx
  1007f9: e8 b7 00 00 00               	calll	0x1008b5 <idt_set_gates>
  1007fe: 83 c4 10                     	addl	$16, %esp
  100801: ff 45 f0                     	incl	-16(%ebp)
  100804: 83 7d f0 2f                  	cmpl	$47, -16(%ebp)
  100808: 7e cb                        	jle	0x1007d5 <init_idt+0x119>
  10080a: b8 68 68 10 00               	movl	$1075304, %eax
  10080f: 83 ec 0c                     	subl	$12, %esp
  100812: 50                           	pushl	%eax
  100813: e8 e5 02 00 00               	calll	0x100afd <idt_flush>
  100818: 83 c4 10                     	addl	$16, %esp
  10081b: 90                           	nop
  10081c: c9                           	leave
  10081d: c3                           	retl

0010081e <gdt_set_gates>:
  10081e: 55                           	pushl	%ebp
  10081f: 89 e5                        	movl	%esp, %ebp
  100821: 83 ec 08                     	subl	$8, %esp
  100824: 8b 55 14                     	movl	20(%ebp), %edx
  100827: 8b 45 18                     	movl	24(%ebp), %eax
  10082a: 88 55 fc                     	movb	%dl, -4(%ebp)
  10082d: 88 45 f8                     	movb	%al, -8(%ebp)
  100830: 8b 45 10                     	movl	16(%ebp), %eax
  100833: 8b 55 08                     	movl	8(%ebp), %edx
  100836: 66 89 04 d5 20 60 10 00      	movw	%ax, 1073184(,%edx,8)
  10083e: 8b 45 0c                     	movl	12(%ebp), %eax
  100841: 8b 55 08                     	movl	8(%ebp), %edx
  100844: 66 89 04 d5 22 60 10 00      	movw	%ax, 1073186(,%edx,8)
  10084c: 8b 45 0c                     	movl	12(%ebp), %eax
  10084f: c1 e8 10                     	shrl	$16, %eax
  100852: 88 c2                        	movb	%al, %dl
  100854: 8b 45 08                     	movl	8(%ebp), %eax
  100857: 88 14 c5 24 60 10 00         	movb	%dl, 1073188(,%eax,8)
  10085e: 8b 45 0c                     	movl	12(%ebp), %eax
  100861: c1 e8 18                     	shrl	$24, %eax
  100864: 88 c2                        	movb	%al, %dl
  100866: 8b 45 08                     	movl	8(%ebp), %eax
  100869: 88 14 c5 27 60 10 00         	movb	%dl, 1073191(,%eax,8)
  100870: 8b 45 08                     	movl	8(%ebp), %eax
  100873: 8a 55 fc                     	movb	-4(%ebp), %dl
  100876: 88 14 c5 25 60 10 00         	movb	%dl, 1073189(,%eax,8)
  10087d: 8b 45 10                     	movl	16(%ebp), %eax
  100880: c1 e8 10                     	shrl	$16, %eax
  100883: 83 e0 0f                     	andl	$15, %eax
  100886: 88 c2                        	movb	%al, %dl
  100888: 8b 45 08                     	movl	8(%ebp), %eax
  10088b: 88 14 c5 26 60 10 00         	movb	%dl, 1073190(,%eax,8)
  100892: 8b 45 08                     	movl	8(%ebp), %eax
  100895: 8a 04 c5 26 60 10 00         	movb	1073190(,%eax,8), %al
  10089c: 88 c2                        	movb	%al, %dl
  10089e: 8a 45 f8                     	movb	-8(%ebp), %al
  1008a1: 83 e0 f0                     	andl	$-16, %eax
  1008a4: 09 d0                        	orl	%edx, %eax
  1008a6: 88 c2                        	movb	%al, %dl
  1008a8: 8b 45 08                     	movl	8(%ebp), %eax
  1008ab: 88 14 c5 26 60 10 00         	movb	%dl, 1073190(,%eax,8)
  1008b2: 90                           	nop
  1008b3: c9                           	leave
  1008b4: c3                           	retl

001008b5 <idt_set_gates>:
  1008b5: 55                           	pushl	%ebp
  1008b6: 89 e5                        	movl	%esp, %ebp
  1008b8: 83 ec 0c                     	subl	$12, %esp
  1008bb: 8b 4d 08                     	movl	8(%ebp), %ecx
  1008be: 8b 45 10                     	movl	16(%ebp), %eax
  1008c1: 8b 55 14                     	movl	20(%ebp), %edx
  1008c4: 88 4d fc                     	movb	%cl, -4(%ebp)
  1008c7: 66 89 45 f8                  	movw	%ax, -8(%ebp)
  1008cb: 88 d0                        	movb	%dl, %al
  1008cd: 88 45 f4                     	movb	%al, -12(%ebp)
  1008d0: 0f b6 55 fc                  	movzbl	-4(%ebp), %edx
  1008d4: 8b 45 0c                     	movl	12(%ebp), %eax
  1008d7: 66 89 04 d5 60 60 10 00      	movw	%ax, 1073248(,%edx,8)
  1008df: 0f b6 55 fc                  	movzbl	-4(%ebp), %edx
  1008e3: 8b 45 f8                     	movl	-8(%ebp), %eax
  1008e6: 66 89 04 d5 62 60 10 00      	movw	%ax, 1073250(,%edx,8)
  1008ee: 0f b6 45 fc                  	movzbl	-4(%ebp), %eax
  1008f2: c6 04 c5 64 60 10 00 00      	movb	$0, 1073252(,%eax,8)
  1008fa: 0f b6 45 fc                  	movzbl	-4(%ebp), %eax
  1008fe: 8a 55 f4                     	movb	-12(%ebp), %dl
  100901: 88 14 c5 65 60 10 00         	movb	%dl, 1073253(,%eax,8)
  100908: 8b 45 0c                     	movl	12(%ebp), %eax
  10090b: c1 e8 10                     	shrl	$16, %eax
  10090e: 0f b6 55 fc                  	movzbl	-4(%ebp), %edx
  100912: 66 89 04 d5 66 60 10 00      	movw	%ax, 1073254(,%edx,8)
  10091a: 90                           	nop
  10091b: c9                           	leave
  10091c: c3                           	retl

0010091d <fetch_isr>:
  10091d: 55                           	pushl	%ebp
  10091e: 89 e5                        	movl	%esp, %ebp
  100920: 81 ec 84 00 00 00            	subl	$132, %esp
  100926: 8b 45 08                     	movl	8(%ebp), %eax
  100929: 88 85 7c ff ff ff            	movb	%al, -132(%ebp)
  10092f: b8 20 0c 10 00               	movl	$1051680, %eax
  100934: 89 45 80                     	movl	%eax, -128(%ebp)
  100937: b8 2a 0c 10 00               	movl	$1051690, %eax
  10093c: 89 45 84                     	movl	%eax, -124(%ebp)
  10093f: b8 34 0c 10 00               	movl	$1051700, %eax
  100944: 89 45 88                     	movl	%eax, -120(%ebp)
  100947: b8 3e 0c 10 00               	movl	$1051710, %eax
  10094c: 89 45 8c                     	movl	%eax, -116(%ebp)
  10094f: b8 48 0c 10 00               	movl	$1051720, %eax
  100954: 89 45 90                     	movl	%eax, -112(%ebp)
  100957: b8 52 0c 10 00               	movl	$1051730, %eax
  10095c: 89 45 94                     	movl	%eax, -108(%ebp)
  10095f: b8 5c 0c 10 00               	movl	$1051740, %eax
  100964: 89 45 98                     	movl	%eax, -104(%ebp)
  100967: b8 66 0c 10 00               	movl	$1051750, %eax
  10096c: 89 45 9c                     	movl	%eax, -100(%ebp)
  10096f: b8 70 0c 10 00               	movl	$1051760, %eax
  100974: 89 45 a0                     	movl	%eax, -96(%ebp)
  100977: b8 78 0c 10 00               	movl	$1051768, %eax
  10097c: 89 45 a4                     	movl	%eax, -92(%ebp)
  10097f: b8 82 0c 10 00               	movl	$1051778, %eax
  100984: 89 45 a8                     	movl	%eax, -88(%ebp)
  100987: b8 8a 0c 10 00               	movl	$1051786, %eax
  10098c: 89 45 ac                     	movl	%eax, -84(%ebp)
  10098f: b8 92 0c 10 00               	movl	$1051794, %eax
  100994: 89 45 b0                     	movl	%eax, -80(%ebp)
  100997: b8 9a 0c 10 00               	movl	$1051802, %eax
  10099c: 89 45 b4                     	movl	%eax, -76(%ebp)
  10099f: b8 a2 0c 10 00               	movl	$1051810, %eax
  1009a4: 89 45 b8                     	movl	%eax, -72(%ebp)
  1009a7: b8 aa 0c 10 00               	movl	$1051818, %eax
  1009ac: 89 45 bc                     	movl	%eax, -68(%ebp)
  1009af: b8 b4 0c 10 00               	movl	$1051828, %eax
  1009b4: 89 45 c0                     	movl	%eax, -64(%ebp)
  1009b7: b8 be 0c 10 00               	movl	$1051838, %eax
  1009bc: 89 45 c4                     	movl	%eax, -60(%ebp)
  1009bf: b8 c8 0c 10 00               	movl	$1051848, %eax
  1009c4: 89 45 c8                     	movl	%eax, -56(%ebp)
  1009c7: b8 d2 0c 10 00               	movl	$1051858, %eax
  1009cc: 89 45 cc                     	movl	%eax, -52(%ebp)
  1009cf: b8 dc 0c 10 00               	movl	$1051868, %eax
  1009d4: 89 45 d0                     	movl	%eax, -48(%ebp)
  1009d7: b8 e6 0c 10 00               	movl	$1051878, %eax
  1009dc: 89 45 d4                     	movl	%eax, -44(%ebp)
  1009df: b8 f0 0c 10 00               	movl	$1051888, %eax
  1009e4: 89 45 d8                     	movl	%eax, -40(%ebp)
  1009e7: b8 fa 0c 10 00               	movl	$1051898, %eax
  1009ec: 89 45 dc                     	movl	%eax, -36(%ebp)
  1009ef: b8 04 0d 10 00               	movl	$1051908, %eax
  1009f4: 89 45 e0                     	movl	%eax, -32(%ebp)
  1009f7: b8 0e 0d 10 00               	movl	$1051918, %eax
  1009fc: 89 45 e4                     	movl	%eax, -28(%ebp)
  1009ff: b8 18 0d 10 00               	movl	$1051928, %eax
  100a04: 89 45 e8                     	movl	%eax, -24(%ebp)
  100a07: b8 22 0d 10 00               	movl	$1051938, %eax
  100a0c: 89 45 ec                     	movl	%eax, -20(%ebp)
  100a0f: b8 2c 0d 10 00               	movl	$1051948, %eax
  100a14: 89 45 f0                     	movl	%eax, -16(%ebp)
  100a17: b8 36 0d 10 00               	movl	$1051958, %eax
  100a1c: 89 45 f4                     	movl	%eax, -12(%ebp)
  100a1f: b8 40 0d 10 00               	movl	$1051968, %eax
  100a24: 89 45 f8                     	movl	%eax, -8(%ebp)
  100a27: b8 4a 0d 10 00               	movl	$1051978, %eax
  100a2c: 89 45 fc                     	movl	%eax, -4(%ebp)
  100a2f: 0f b6 85 7c ff ff ff         	movzbl	-132(%ebp), %eax
  100a36: 8b 44 85 80                  	movl	-128(%ebp,%eax,4), %eax
  100a3a: c9                           	leave
  100a3b: c3                           	retl

00100a3c <fetch_irq>:
  100a3c: 55                           	pushl	%ebp
  100a3d: 89 e5                        	movl	%esp, %ebp
  100a3f: 83 ec 44                     	subl	$68, %esp
  100a42: 8b 45 08                     	movl	8(%ebp), %eax
  100a45: 88 45 bc                     	movb	%al, -68(%ebp)
  100a48: b8 51 0d 10 00               	movl	$1051985, %eax
  100a4d: 89 45 c0                     	movl	%eax, -64(%ebp)
  100a50: b8 5b 0d 10 00               	movl	$1051995, %eax
  100a55: 89 45 c4                     	movl	%eax, -60(%ebp)
  100a58: b8 65 0d 10 00               	movl	$1052005, %eax
  100a5d: 89 45 c8                     	movl	%eax, -56(%ebp)
  100a60: b8 6f 0d 10 00               	movl	$1052015, %eax
  100a65: 89 45 cc                     	movl	%eax, -52(%ebp)
  100a68: b8 76 0d 10 00               	movl	$1052022, %eax
  100a6d: 89 45 d0                     	movl	%eax, -48(%ebp)
  100a70: b8 7d 0d 10 00               	movl	$1052029, %eax
  100a75: 89 45 d4                     	movl	%eax, -44(%ebp)
  100a78: b8 84 0d 10 00               	movl	$1052036, %eax
  100a7d: 89 45 d8                     	movl	%eax, -40(%ebp)
  100a80: b8 8b 0d 10 00               	movl	$1052043, %eax
  100a85: 89 45 dc                     	movl	%eax, -36(%ebp)
  100a88: b8 92 0d 10 00               	movl	$1052050, %eax
  100a8d: 89 45 e0                     	movl	%eax, -32(%ebp)
  100a90: b8 99 0d 10 00               	movl	$1052057, %eax
  100a95: 89 45 e4                     	movl	%eax, -28(%ebp)
  100a98: b8 a0 0d 10 00               	movl	$1052064, %eax
  100a9d: 89 45 e8                     	movl	%eax, -24(%ebp)
  100aa0: b8 a7 0d 10 00               	movl	$1052071, %eax
  100aa5: 89 45 ec                     	movl	%eax, -20(%ebp)
  100aa8: b8 ae 0d 10 00               	movl	$1052078, %eax
  100aad: 89 45 f0                     	movl	%eax, -16(%ebp)
  100ab0: b8 b5 0d 10 00               	movl	$1052085, %eax
  100ab5: 89 45 f4                     	movl	%eax, -12(%ebp)
  100ab8: b8 bc 0d 10 00               	movl	$1052092, %eax
  100abd: 89 45 f8                     	movl	%eax, -8(%ebp)
  100ac0: b8 c3 0d 10 00               	movl	$1052099, %eax
  100ac5: 89 45 fc                     	movl	%eax, -4(%ebp)
  100ac8: 0f b6 45 bc                  	movzbl	-68(%ebp), %eax
  100acc: 8b 44 85 c0                  	movl	-64(%ebp,%eax,4), %eax
  100ad0: c9                           	leave
  100ad1: c3                           	retl
  100ad2: 66 90                        	nop
  100ad4: 66 90                        	nop
  100ad6: 66 90                        	nop
  100ad8: 66 90                        	nop
  100ada: 66 90                        	nop
  100adc: 66 90                        	nop
  100ade: 66 90                        	nop

00100ae0 <gdt_flush>:
  100ae0: 8b 44 24 04                  	movl	4(%esp), %eax
  100ae4: 0f 01 10                     	lgdtl	(%eax)
  100ae7: 66 b8 10 00                  	movw	$16, %ax
  100aeb: 8e d8                        	movl	%eax, %ds
  100aed: 8e c0                        	movl	%eax, %es
  100aef: 8e e0                        	movl	%eax, %fs
  100af1: 8e e8                        	movl	%eax, %gs
  100af3: 8e d0                        	movl	%eax, %ss
  100af5: ea fc 0a 10 00 08 00         	ljmpl	$8, $1051388

00100afc <gdt_flush.flush>:
  100afc: c3                           	retl

00100afd <idt_flush>:
  100afd: 8b 54 24 04                  	movl	4(%esp), %edx
  100b01: 0f 01 1a                     	lidtl	(%edx)
  100b04: fb                           	sti
  100b05: c3                           	retl

00100b06 <isr_handler>:
  100b06: 55                           	pushl	%ebp
  100b07: 89 e5                        	movl	%esp, %ebp
  100b09: 57                           	pushl	%edi
  100b0a: 56                           	pushl	%esi
  100b0b: 53                           	pushl	%ebx
  100b0c: 83 ec 1c                     	subl	$28, %esp
  100b0f: 8b 45 2c                     	movl	44(%ebp), %eax
  100b12: 8b 04 85 80 68 10 00         	movl	1075328(,%eax,4), %eax
  100b19: 85 c0                        	testl	%eax, %eax
  100b1b: 74 2e                        	je	0x100b4b <isr_handler+0x45>
  100b1d: 8b 45 2c                     	movl	44(%ebp), %eax
  100b20: 8b 04 85 80 68 10 00         	movl	1075328(,%eax,4), %eax
  100b27: 89 45 e4                     	movl	%eax, -28(%ebp)
  100b2a: 83 ec 40                     	subl	$64, %esp
  100b2d: 89 e0                        	movl	%esp, %eax
  100b2f: 89 c2                        	movl	%eax, %edx
  100b31: 8d 5d 08                     	leal	8(%ebp), %ebx
  100b34: b8 10 00 00 00               	movl	$16, %eax
  100b39: 89 d7                        	movl	%edx, %edi
  100b3b: 89 de                        	movl	%ebx, %esi
  100b3d: 89 c1                        	movl	%eax, %ecx
  100b3f: f3 a5                        	rep		movsl	(%esi), %es:(%edi)
  100b41: 8b 45 e4                     	movl	-28(%ebp), %eax
  100b44: ff d0                        	calll	*%eax
  100b46: 83 c4 40                     	addl	$64, %esp
  100b49: eb 2c                        	jmp	0x100b77 <isr_handler+0x71>
  100b4b: 83 ec 0c                     	subl	$12, %esp
  100b4e: 68 95 31 10 00               	pushl	$1061269
  100b53: e8 68 f7 ff ff               	calll	0x1002c0 <monitor_write>
  100b58: 83 c4 10                     	addl	$16, %esp
  100b5b: 8b 45 2c                     	movl	44(%ebp), %eax
  100b5e: 83 ec 0c                     	subl	$12, %esp
  100b61: 50                           	pushl	%eax
  100b62: e8 9b f7 ff ff               	calll	0x100302 <monitor_write_dec>
  100b67: 83 c4 10                     	addl	$16, %esp
  100b6a: 83 ec 0c                     	subl	$12, %esp
  100b6d: 6a 0a                        	pushl	$10
  100b6f: e8 b2 f5 ff ff               	calll	0x100126 <monitor_put>
  100b74: 83 c4 10                     	addl	$16, %esp
  100b77: 90                           	nop
  100b78: 8d 65 f4                     	leal	-12(%ebp), %esp
  100b7b: 5b                           	popl	%ebx
  100b7c: 5e                           	popl	%esi
  100b7d: 5f                           	popl	%edi
  100b7e: 5d                           	popl	%ebp
  100b7f: c3                           	retl

00100b80 <irq_handler>:
  100b80: 55                           	pushl	%ebp
  100b81: 89 e5                        	movl	%esp, %ebp
  100b83: 57                           	pushl	%edi
  100b84: 56                           	pushl	%esi
  100b85: 53                           	pushl	%ebx
  100b86: 83 ec 1c                     	subl	$28, %esp
  100b89: 8b 45 2c                     	movl	44(%ebp), %eax
  100b8c: 83 f8 27                     	cmpl	$39, %eax
  100b8f: 76 12                        	jbe	0x100ba3 <irq_handler+0x23>
  100b91: 83 ec 08                     	subl	$8, %esp
  100b94: 6a 20                        	pushl	$32
  100b96: 68 a0 00 00 00               	pushl	$160
  100b9b: e8 19 f9 ff ff               	calll	0x1004b9 <out_byte>
  100ba0: 83 c4 10                     	addl	$16, %esp
  100ba3: 83 ec 08                     	subl	$8, %esp
  100ba6: 6a 20                        	pushl	$32
  100ba8: 6a 20                        	pushl	$32
  100baa: e8 0a f9 ff ff               	calll	0x1004b9 <out_byte>
  100baf: 83 c4 10                     	addl	$16, %esp
  100bb2: 8b 45 2c                     	movl	44(%ebp), %eax
  100bb5: 8b 04 85 80 68 10 00         	movl	1075328(,%eax,4), %eax
  100bbc: 85 c0                        	testl	%eax, %eax
  100bbe: 74 2c                        	je	0x100bec <irq_handler+0x6c>
  100bc0: 8b 45 2c                     	movl	44(%ebp), %eax
  100bc3: 8b 04 85 80 68 10 00         	movl	1075328(,%eax,4), %eax
  100bca: 89 45 e4                     	movl	%eax, -28(%ebp)
  100bcd: 83 ec 40                     	subl	$64, %esp
  100bd0: 89 e0                        	movl	%esp, %eax
  100bd2: 89 c2                        	movl	%eax, %edx
  100bd4: 8d 5d 08                     	leal	8(%ebp), %ebx
  100bd7: b8 10 00 00 00               	movl	$16, %eax
  100bdc: 89 d7                        	movl	%edx, %edi
  100bde: 89 de                        	movl	%ebx, %esi
  100be0: 89 c1                        	movl	%eax, %ecx
  100be2: f3 a5                        	rep		movsl	(%esi), %es:(%edi)
  100be4: 8b 45 e4                     	movl	-28(%ebp), %eax
  100be7: ff d0                        	calll	*%eax
  100be9: 83 c4 40                     	addl	$64, %esp
  100bec: 90                           	nop
  100bed: 8d 65 f4                     	leal	-12(%ebp), %esp
  100bf0: 5b                           	popl	%ebx
  100bf1: 5e                           	popl	%esi
  100bf2: 5f                           	popl	%edi
  100bf3: 5d                           	popl	%ebp
  100bf4: c3                           	retl

00100bf5 <register_interrupt_handler>:
  100bf5: 55                           	pushl	%ebp
  100bf6: 89 e5                        	movl	%esp, %ebp
  100bf8: 83 ec 04                     	subl	$4, %esp
  100bfb: 8b 45 08                     	movl	8(%ebp), %eax
  100bfe: 88 45 fc                     	movb	%al, -4(%ebp)
  100c01: 0f b6 45 fc                  	movzbl	-4(%ebp), %eax
  100c05: 8b 55 0c                     	movl	12(%ebp), %edx
  100c08: 89 14 85 80 68 10 00         	movl	%edx, 1075328(,%eax,4)
  100c0f: 90                           	nop
  100c10: c9                           	leave
  100c11: c3                           	retl
  100c12: 66 90                        	nop
  100c14: 66 90                        	nop
  100c16: 66 90                        	nop
  100c18: 66 90                        	nop
  100c1a: 66 90                        	nop
  100c1c: 66 90                        	nop
  100c1e: 66 90                        	nop

00100c20 <isr0>:
  100c20: fa                           	cli
  100c21: 6a 00                        	pushl	$0
  100c23: 6a 00                        	pushl	$0
  100c25: e9 a0 01 00 00               	jmp	0x100dca <isr_common>

00100c2a <isr1>:
  100c2a: fa                           	cli
  100c2b: 6a 00                        	pushl	$0
  100c2d: 6a 01                        	pushl	$1
  100c2f: e9 96 01 00 00               	jmp	0x100dca <isr_common>

00100c34 <isr2>:
  100c34: fa                           	cli
  100c35: 6a 00                        	pushl	$0
  100c37: 6a 02                        	pushl	$2
  100c39: e9 8c 01 00 00               	jmp	0x100dca <isr_common>

00100c3e <isr3>:
  100c3e: fa                           	cli
  100c3f: 6a 00                        	pushl	$0
  100c41: 6a 03                        	pushl	$3
  100c43: e9 82 01 00 00               	jmp	0x100dca <isr_common>

00100c48 <isr4>:
  100c48: fa                           	cli
  100c49: 6a 00                        	pushl	$0
  100c4b: 6a 04                        	pushl	$4
  100c4d: e9 78 01 00 00               	jmp	0x100dca <isr_common>

00100c52 <isr5>:
  100c52: fa                           	cli
  100c53: 6a 00                        	pushl	$0
  100c55: 6a 05                        	pushl	$5
  100c57: e9 6e 01 00 00               	jmp	0x100dca <isr_common>

00100c5c <isr6>:
  100c5c: fa                           	cli
  100c5d: 6a 00                        	pushl	$0
  100c5f: 6a 06                        	pushl	$6
  100c61: e9 64 01 00 00               	jmp	0x100dca <isr_common>

00100c66 <isr7>:
  100c66: fa                           	cli
  100c67: 6a 00                        	pushl	$0
  100c69: 6a 07                        	pushl	$7
  100c6b: e9 5a 01 00 00               	jmp	0x100dca <isr_common>

00100c70 <isr8>:
  100c70: fa                           	cli
  100c71: 6a 08                        	pushl	$8
  100c73: e9 52 01 00 00               	jmp	0x100dca <isr_common>

00100c78 <isr9>:
  100c78: fa                           	cli
  100c79: 6a 00                        	pushl	$0
  100c7b: 6a 09                        	pushl	$9
  100c7d: e9 48 01 00 00               	jmp	0x100dca <isr_common>

00100c82 <isr10>:
  100c82: fa                           	cli
  100c83: 6a 0a                        	pushl	$10
  100c85: e9 40 01 00 00               	jmp	0x100dca <isr_common>

00100c8a <isr11>:
  100c8a: fa                           	cli
  100c8b: 6a 0b                        	pushl	$11
  100c8d: e9 38 01 00 00               	jmp	0x100dca <isr_common>

00100c92 <isr12>:
  100c92: fa                           	cli
  100c93: 6a 0c                        	pushl	$12
  100c95: e9 30 01 00 00               	jmp	0x100dca <isr_common>

00100c9a <isr13>:
  100c9a: fa                           	cli
  100c9b: 6a 0d                        	pushl	$13
  100c9d: e9 28 01 00 00               	jmp	0x100dca <isr_common>

00100ca2 <isr14>:
  100ca2: fa                           	cli
  100ca3: 6a 0e                        	pushl	$14
  100ca5: e9 20 01 00 00               	jmp	0x100dca <isr_common>

00100caa <isr15>:
  100caa: fa                           	cli
  100cab: 6a 00                        	pushl	$0
  100cad: 6a 0f                        	pushl	$15
  100caf: e9 16 01 00 00               	jmp	0x100dca <isr_common>

00100cb4 <isr16>:
  100cb4: fa                           	cli
  100cb5: 6a 00                        	pushl	$0
  100cb7: 6a 10                        	pushl	$16
  100cb9: e9 0c 01 00 00               	jmp	0x100dca <isr_common>

00100cbe <isr17>:
  100cbe: fa                           	cli
  100cbf: 6a 00                        	pushl	$0
  100cc1: 6a 11                        	pushl	$17
  100cc3: e9 02 01 00 00               	jmp	0x100dca <isr_common>

00100cc8 <isr18>:
  100cc8: fa                           	cli
  100cc9: 6a 00                        	pushl	$0
  100ccb: 6a 12                        	pushl	$18
  100ccd: e9 f8 00 00 00               	jmp	0x100dca <isr_common>

00100cd2 <isr19>:
  100cd2: fa                           	cli
  100cd3: 6a 00                        	pushl	$0
  100cd5: 6a 13                        	pushl	$19
  100cd7: e9 ee 00 00 00               	jmp	0x100dca <isr_common>

00100cdc <isr20>:
  100cdc: fa                           	cli
  100cdd: 6a 00                        	pushl	$0
  100cdf: 6a 14                        	pushl	$20
  100ce1: e9 e4 00 00 00               	jmp	0x100dca <isr_common>

00100ce6 <isr21>:
  100ce6: fa                           	cli
  100ce7: 6a 00                        	pushl	$0
  100ce9: 6a 15                        	pushl	$21
  100ceb: e9 da 00 00 00               	jmp	0x100dca <isr_common>

00100cf0 <isr22>:
  100cf0: fa                           	cli
  100cf1: 6a 00                        	pushl	$0
  100cf3: 6a 16                        	pushl	$22
  100cf5: e9 d0 00 00 00               	jmp	0x100dca <isr_common>

00100cfa <isr23>:
  100cfa: fa                           	cli
  100cfb: 6a 00                        	pushl	$0
  100cfd: 6a 17                        	pushl	$23
  100cff: e9 c6 00 00 00               	jmp	0x100dca <isr_common>

00100d04 <isr24>:
  100d04: fa                           	cli
  100d05: 6a 00                        	pushl	$0
  100d07: 6a 18                        	pushl	$24
  100d09: e9 bc 00 00 00               	jmp	0x100dca <isr_common>

00100d0e <isr25>:
  100d0e: fa                           	cli
  100d0f: 6a 00                        	pushl	$0
  100d11: 6a 19                        	pushl	$25
  100d13: e9 b2 00 00 00               	jmp	0x100dca <isr_common>

00100d18 <isr26>:
  100d18: fa                           	cli
  100d19: 6a 00                        	pushl	$0
  100d1b: 6a 1a                        	pushl	$26
  100d1d: e9 a8 00 00 00               	jmp	0x100dca <isr_common>

00100d22 <isr27>:
  100d22: fa                           	cli
  100d23: 6a 00                        	pushl	$0
  100d25: 6a 1b                        	pushl	$27
  100d27: e9 9e 00 00 00               	jmp	0x100dca <isr_common>

00100d2c <isr28>:
  100d2c: fa                           	cli
  100d2d: 6a 00                        	pushl	$0
  100d2f: 6a 1c                        	pushl	$28
  100d31: e9 94 00 00 00               	jmp	0x100dca <isr_common>

00100d36 <isr29>:
  100d36: fa                           	cli
  100d37: 6a 00                        	pushl	$0
  100d39: 6a 1d                        	pushl	$29
  100d3b: e9 8a 00 00 00               	jmp	0x100dca <isr_common>

00100d40 <isr30>:
  100d40: fa                           	cli
  100d41: 6a 00                        	pushl	$0
  100d43: 6a 1e                        	pushl	$30
  100d45: e9 80 00 00 00               	jmp	0x100dca <isr_common>

00100d4a <isr31>:
  100d4a: fa                           	cli
  100d4b: 6a 00                        	pushl	$0
  100d4d: 6a 1f                        	pushl	$31
  100d4f: eb 79                        	jmp	0x100dca <isr_common>

00100d51 <irq0>:
  100d51: fa                           	cli
  100d52: 6a 00                        	pushl	$0
  100d54: 6a 20                        	pushl	$32
  100d56: e9 96 00 00 00               	jmp	0x100df1 <irq_common>

00100d5b <irq1>:
  100d5b: fa                           	cli
  100d5c: 6a 00                        	pushl	$0
  100d5e: 6a 21                        	pushl	$33
  100d60: e9 8c 00 00 00               	jmp	0x100df1 <irq_common>

00100d65 <irq2>:
  100d65: fa                           	cli
  100d66: 6a 00                        	pushl	$0
  100d68: 6a 22                        	pushl	$34
  100d6a: e9 82 00 00 00               	jmp	0x100df1 <irq_common>

00100d6f <irq3>:
  100d6f: fa                           	cli
  100d70: 6a 00                        	pushl	$0
  100d72: 6a 23                        	pushl	$35
  100d74: eb 7b                        	jmp	0x100df1 <irq_common>

00100d76 <irq4>:
  100d76: fa                           	cli
  100d77: 6a 00                        	pushl	$0
  100d79: 6a 24                        	pushl	$36
  100d7b: eb 74                        	jmp	0x100df1 <irq_common>

00100d7d <irq5>:
  100d7d: fa                           	cli
  100d7e: 6a 00                        	pushl	$0
  100d80: 6a 25                        	pushl	$37
  100d82: eb 6d                        	jmp	0x100df1 <irq_common>

00100d84 <irq6>:
  100d84: fa                           	cli
  100d85: 6a 00                        	pushl	$0
  100d87: 6a 26                        	pushl	$38
  100d89: eb 66                        	jmp	0x100df1 <irq_common>

00100d8b <irq7>:
  100d8b: fa                           	cli
  100d8c: 6a 00                        	pushl	$0
  100d8e: 6a 27                        	pushl	$39
  100d90: eb 5f                        	jmp	0x100df1 <irq_common>

00100d92 <irq8>:
  100d92: fa                           	cli
  100d93: 6a 00                        	pushl	$0
  100d95: 6a 28                        	pushl	$40
  100d97: eb 58                        	jmp	0x100df1 <irq_common>

00100d99 <irq9>:
  100d99: fa                           	cli
  100d9a: 6a 00                        	pushl	$0
  100d9c: 6a 29                        	pushl	$41
  100d9e: eb 51                        	jmp	0x100df1 <irq_common>

00100da0 <irq10>:
  100da0: fa                           	cli
  100da1: 6a 00                        	pushl	$0
  100da3: 6a 2a                        	pushl	$42
  100da5: eb 4a                        	jmp	0x100df1 <irq_common>

00100da7 <irq11>:
  100da7: fa                           	cli
  100da8: 6a 00                        	pushl	$0
  100daa: 6a 2b                        	pushl	$43
  100dac: eb 43                        	jmp	0x100df1 <irq_common>

00100dae <irq12>:
  100dae: fa                           	cli
  100daf: 6a 00                        	pushl	$0
  100db1: 6a 2c                        	pushl	$44
  100db3: eb 3c                        	jmp	0x100df1 <irq_common>

00100db5 <irq13>:
  100db5: fa                           	cli
  100db6: 6a 00                        	pushl	$0
  100db8: 6a 2d                        	pushl	$45
  100dba: eb 35                        	jmp	0x100df1 <irq_common>

00100dbc <irq14>:
  100dbc: fa                           	cli
  100dbd: 6a 00                        	pushl	$0
  100dbf: 6a 2e                        	pushl	$46
  100dc1: eb 2e                        	jmp	0x100df1 <irq_common>

00100dc3 <irq15>:
  100dc3: fa                           	cli
  100dc4: 6a 00                        	pushl	$0
  100dc6: 6a 2f                        	pushl	$47
  100dc8: eb 27                        	jmp	0x100df1 <irq_common>

00100dca <isr_common>:
  100dca: 60                           	pushal
  100dcb: 66 8c d8                     	movw	%ds, %ax
  100dce: 50                           	pushl	%eax
  100dcf: 66 b8 10 00                  	movw	$16, %ax
  100dd3: 8e d8                        	movl	%eax, %ds
  100dd5: 8e c0                        	movl	%eax, %es
  100dd7: 8e e0                        	movl	%eax, %fs
  100dd9: 8e e8                        	movl	%eax, %gs
  100ddb: e8 26 fd ff ff               	calll	0x100b06 <isr_handler>
  100de0: 58                           	popl	%eax
  100de1: 8e d8                        	movl	%eax, %ds
  100de3: 8e c0                        	movl	%eax, %es
  100de5: 8e c0                        	movl	%eax, %es
  100de7: 8e e0                        	movl	%eax, %fs
  100de9: 8e e8                        	movl	%eax, %gs
  100deb: 61                           	popal
  100dec: 83 c4 08                     	addl	$8, %esp
  100def: fb                           	sti
  100df0: cf                           	iretl

00100df1 <irq_common>:
  100df1: 60                           	pushal
  100df2: 66 8c d8                     	movw	%ds, %ax
  100df5: 50                           	pushl	%eax
  100df6: 66 b8 10 00                  	movw	$16, %ax
  100dfa: 8e d8                        	movl	%eax, %ds
  100dfc: 8e c0                        	movl	%eax, %es
  100dfe: 8e e0                        	movl	%eax, %fs
  100e00: 8e e8                        	movl	%eax, %gs
  100e02: e8 79 fd ff ff               	calll	0x100b80 <irq_handler>
  100e07: 5b                           	popl	%ebx
  100e08: 8e db                        	movl	%ebx, %ds
  100e0a: 8e c3                        	movl	%ebx, %es
  100e0c: 8e c3                        	movl	%ebx, %es
  100e0e: 8e e3                        	movl	%ebx, %fs
  100e10: 8e eb                        	movl	%ebx, %gs
  100e12: 61                           	popal
  100e13: 83 c4 08                     	addl	$8, %esp
  100e16: fb                           	sti
  100e17: cf                           	iretl

00100e18 <keyboard_init>:
  100e18: 55                           	pushl	%ebp
  100e19: 89 e5                        	movl	%esp, %ebp
  100e1b: 83 ec 08                     	subl	$8, %esp
  100e1e: 83 ec 08                     	subl	$8, %esp
  100e21: 68 33 0e 10 00               	pushl	$1052211
  100e26: 6a 21                        	pushl	$33
  100e28: e8 c8 fd ff ff               	calll	0x100bf5 <register_interrupt_handler>
  100e2d: 83 c4 10                     	addl	$16, %esp
  100e30: 90                           	nop
  100e31: c9                           	leave
  100e32: c3                           	retl

00100e33 <keyboard_callback>:
  100e33: 55                           	pushl	%ebp
  100e34: 89 e5                        	movl	%esp, %ebp
  100e36: 83 ec 18                     	subl	$24, %esp
  100e39: 83 ec 08                     	subl	$8, %esp
  100e3c: 6a 20                        	pushl	$32
  100e3e: 6a 20                        	pushl	$32
  100e40: e8 74 f6 ff ff               	calll	0x1004b9 <out_byte>
  100e45: 83 c4 10                     	addl	$16, %esp
  100e48: 83 ec 0c                     	subl	$12, %esp
  100e4b: 6a 64                        	pushl	$100
  100e4d: e8 86 f6 ff ff               	calll	0x1004d8 <in_byte>
  100e52: 83 c4 10                     	addl	$16, %esp
  100e55: 88 45 f7                     	movb	%al, -9(%ebp)
  100e58: 0f b6 45 f7                  	movzbl	-9(%ebp), %eax
  100e5c: 83 e0 01                     	andl	$1, %eax
  100e5f: 85 c0                        	testl	%eax, %eax
  100e61: 74 32                        	je	0x100e95 <keyboard_callback+0x62>
  100e63: 83 ec 0c                     	subl	$12, %esp
  100e66: 6a 60                        	pushl	$96
  100e68: e8 6b f6 ff ff               	calll	0x1004d8 <in_byte>
  100e6d: 83 c4 10                     	addl	$16, %esp
  100e70: 88 45 f6                     	movb	%al, -10(%ebp)
  100e73: 80 7d f6 00                  	cmpb	$0, -10(%ebp)
  100e77: 78 1b                        	js	0x100e94 <keyboard_callback+0x61>
  100e79: 0f be 45 f6                  	movsbl	-10(%ebp), %eax
  100e7d: 8a 80 20 30 10 00            	movb	1060896(%eax), %al
  100e83: 0f be c0                     	movsbl	%al, %eax
  100e86: 83 ec 0c                     	subl	$12, %esp
  100e89: 50                           	pushl	%eax
  100e8a: e8 97 f2 ff ff               	calll	0x100126 <monitor_put>
  100e8f: 83 c4 10                     	addl	$16, %esp
  100e92: eb 01                        	jmp	0x100e95 <keyboard_callback+0x62>
  100e94: 90                           	nop
  100e95: c9                           	leave
  100e96: c3                           	retl

00100e97 <timer_callback>:
  100e97: 55                           	pushl	%ebp
  100e98: 89 e5                        	movl	%esp, %ebp
  100e9a: 83 ec 08                     	subl	$8, %esp
  100e9d: a1 80 6c 10 00               	movl	1076352, %eax
  100ea2: 40                           	incl	%eax
  100ea3: a3 80 6c 10 00               	movl	%eax, 1076352
  100ea8: 83 ec 0c                     	subl	$12, %esp
  100eab: 68 ac 31 10 00               	pushl	$1061292
  100eb0: e8 0b f4 ff ff               	calll	0x1002c0 <monitor_write>
  100eb5: 83 c4 10                     	addl	$16, %esp
  100eb8: a1 80 6c 10 00               	movl	1076352, %eax
  100ebd: 83 ec 0c                     	subl	$12, %esp
  100ec0: 50                           	pushl	%eax
  100ec1: e8 3c f4 ff ff               	calll	0x100302 <monitor_write_dec>
  100ec6: 83 c4 10                     	addl	$16, %esp
  100ec9: 83 ec 0c                     	subl	$12, %esp
  100ecc: 6a 0a                        	pushl	$10
  100ece: e8 53 f2 ff ff               	calll	0x100126 <monitor_put>
  100ed3: 83 c4 10                     	addl	$16, %esp
  100ed6: 90                           	nop
  100ed7: c9                           	leave
  100ed8: c3                           	retl

00100ed9 <init_timer>:
  100ed9: 55                           	pushl	%ebp
  100eda: 89 e5                        	movl	%esp, %ebp
  100edc: 83 ec 18                     	subl	$24, %esp
  100edf: 83 ec 08                     	subl	$8, %esp
  100ee2: 68 97 0e 10 00               	pushl	$1052311
  100ee7: 6a 20                        	pushl	$32
  100ee9: e8 07 fd ff ff               	calll	0x100bf5 <register_interrupt_handler>
  100eee: 83 c4 10                     	addl	$16, %esp
  100ef1: b8 dc 34 12 00               	movl	$1193180, %eax
  100ef6: ba 00 00 00 00               	movl	$0, %edx
  100efb: f7 75 08                     	divl	8(%ebp)
  100efe: 89 45 f4                     	movl	%eax, -12(%ebp)
  100f01: 83 ec 08                     	subl	$8, %esp
  100f04: 6a 36                        	pushl	$54
  100f06: 6a 43                        	pushl	$67
  100f08: e8 ac f5 ff ff               	calll	0x1004b9 <out_byte>
  100f0d: 83 c4 10                     	addl	$16, %esp
  100f10: 8b 45 f4                     	movl	-12(%ebp), %eax
  100f13: 0f b6 c0                     	movzbl	%al, %eax
  100f16: 83 ec 08                     	subl	$8, %esp
  100f19: 50                           	pushl	%eax
  100f1a: 6a 40                        	pushl	$64
  100f1c: e8 98 f5 ff ff               	calll	0x1004b9 <out_byte>
  100f21: 83 c4 10                     	addl	$16, %esp
  100f24: 8b 45 f4                     	movl	-12(%ebp), %eax
  100f27: c1 e8 08                     	shrl	$8, %eax
  100f2a: 0f b6 c0                     	movzbl	%al, %eax
  100f2d: 83 ec 08                     	subl	$8, %esp
  100f30: 50                           	pushl	%eax
  100f31: 6a 40                        	pushl	$64
  100f33: e8 81 f5 ff ff               	calll	0x1004b9 <out_byte>
  100f38: 83 c4 10                     	addl	$16, %esp
  100f3b: 90                           	nop
  100f3c: c9                           	leave
  100f3d: c3                           	retl

00100f3e <kmalloc_helper>:
  100f3e: 55                           	pushl	%ebp
  100f3f: 89 e5                        	movl	%esp, %ebp
  100f41: 83 ec 18                     	subl	$24, %esp
  100f44: a1 84 6c 10 00               	movl	1076356, %eax
  100f49: 85 c0                        	testl	%eax, %eax
  100f4b: 74 63                        	je	0x100fb0 <kmalloc_helper+0x72>
  100f4d: 8b 15 84 6c 10 00            	movl	1076356, %edx
  100f53: 8b 45 0c                     	movl	12(%ebp), %eax
  100f56: 0f b6 c0                     	movzbl	%al, %eax
  100f59: 83 ec 04                     	subl	$4, %esp
  100f5c: 52                           	pushl	%edx
  100f5d: 50                           	pushl	%eax
  100f5e: ff 75 08                     	pushl	8(%ebp)
  100f61: e8 89 04 00 00               	calll	0x1013ef <alloc>
  100f66: 83 c4 10                     	addl	$16, %esp
  100f69: 89 45 f0                     	movl	%eax, -16(%ebp)
  100f6c: 83 7d 10 00                  	cmpl	$0, 16(%ebp)
  100f70: 74 39                        	je	0x100fab <kmalloc_helper+0x6d>
  100f72: 8b 15 94 6c 10 00            	movl	1076372, %edx
  100f78: 8b 45 f0                     	movl	-16(%ebp), %eax
  100f7b: 83 ec 04                     	subl	$4, %esp
  100f7e: 52                           	pushl	%edx
  100f7f: 6a 00                        	pushl	$0
  100f81: 50                           	pushl	%eax
  100f82: e8 02 0f 00 00               	calll	0x101e89 <get_page>
  100f87: 83 c4 10                     	addl	$16, %esp
  100f8a: 89 45 ec                     	movl	%eax, -20(%ebp)
  100f8d: 8b 45 ec                     	movl	-20(%ebp), %eax
  100f90: 8b 00                        	movl	(%eax), %eax
  100f92: c1 e8 0c                     	shrl	$12, %eax
  100f95: c1 e0 0c                     	shll	$12, %eax
  100f98: 89 c2                        	movl	%eax, %edx
  100f9a: 8b 45 f0                     	movl	-16(%ebp), %eax
  100f9d: 01 d0                        	addl	%edx, %eax
  100f9f: 25 ff 0f 00 00               	andl	$4095, %eax
  100fa4: 89 c2                        	movl	%eax, %edx
  100fa6: 8b 45 10                     	movl	16(%ebp), %eax
  100fa9: 89 10                        	movl	%edx, (%eax)
  100fab: 8b 45 f0                     	movl	-16(%ebp), %eax
  100fae: eb 5e                        	jmp	0x10100e <kmalloc_helper+0xd0>
  100fb0: 83 7d 0c 01                  	cmpl	$1, 12(%ebp)
  100fb4: 75 2c                        	jne	0x100fe2 <kmalloc_helper+0xa4>
  100fb6: a1 a0 30 10 00               	movl	1061024, %eax
  100fbb: 25 00 f0 ff ff               	andl	$4294963200, %eax
  100fc0: 85 c0                        	testl	%eax, %eax
  100fc2: 74 1e                        	je	0x100fe2 <kmalloc_helper+0xa4>
  100fc4: a1 a0 30 10 00               	movl	1061024, %eax
  100fc9: 25 00 f0 ff ff               	andl	$4294963200, %eax
  100fce: a3 a0 30 10 00               	movl	%eax, 1061024
  100fd3: a1 a0 30 10 00               	movl	1061024, %eax
  100fd8: 05 00 10 00 00               	addl	$4096, %eax
  100fdd: a3 a0 30 10 00               	movl	%eax, 1061024
  100fe2: 83 7d 10 00                  	cmpl	$0, 16(%ebp)
  100fe6: 74 0b                        	je	0x100ff3 <kmalloc_helper+0xb5>
  100fe8: 8b 15 a0 30 10 00            	movl	1061024, %edx
  100fee: 8b 45 10                     	movl	16(%ebp), %eax
  100ff1: 89 10                        	movl	%edx, (%eax)
  100ff3: a1 a0 30 10 00               	movl	1061024, %eax
  100ff8: 89 45 f4                     	movl	%eax, -12(%ebp)
  100ffb: 8b 15 a0 30 10 00            	movl	1061024, %edx
  101001: 8b 45 08                     	movl	8(%ebp), %eax
  101004: 01 d0                        	addl	%edx, %eax
  101006: a3 a0 30 10 00               	movl	%eax, 1061024
  10100b: 8b 45 f4                     	movl	-12(%ebp), %eax
  10100e: c9                           	leave
  10100f: c3                           	retl

00101010 <kmalloc>:
  101010: 55                           	pushl	%ebp
  101011: 89 e5                        	movl	%esp, %ebp
  101013: 83 ec 08                     	subl	$8, %esp
  101016: 83 ec 04                     	subl	$4, %esp
  101019: 6a 00                        	pushl	$0
  10101b: 6a 00                        	pushl	$0
  10101d: ff 75 08                     	pushl	8(%ebp)
  101020: e8 19 ff ff ff               	calll	0x100f3e <kmalloc_helper>
  101025: 83 c4 10                     	addl	$16, %esp
  101028: c9                           	leave
  101029: c3                           	retl

0010102a <kmalloc_aligned>:
  10102a: 55                           	pushl	%ebp
  10102b: 89 e5                        	movl	%esp, %ebp
  10102d: 83 ec 08                     	subl	$8, %esp
  101030: 83 ec 04                     	subl	$4, %esp
  101033: 6a 00                        	pushl	$0
  101035: 6a 01                        	pushl	$1
  101037: ff 75 08                     	pushl	8(%ebp)
  10103a: e8 ff fe ff ff               	calll	0x100f3e <kmalloc_helper>
  10103f: 83 c4 10                     	addl	$16, %esp
  101042: c9                           	leave
  101043: c3                           	retl

00101044 <kmalloc_physical>:
  101044: 55                           	pushl	%ebp
  101045: 89 e5                        	movl	%esp, %ebp
  101047: 83 ec 08                     	subl	$8, %esp
  10104a: 83 ec 04                     	subl	$4, %esp
  10104d: ff 75 0c                     	pushl	12(%ebp)
  101050: 6a 00                        	pushl	$0
  101052: ff 75 08                     	pushl	8(%ebp)
  101055: e8 e4 fe ff ff               	calll	0x100f3e <kmalloc_helper>
  10105a: 83 c4 10                     	addl	$16, %esp
  10105d: c9                           	leave
  10105e: c3                           	retl

0010105f <kmalloc_aligned_physical>:
  10105f: 55                           	pushl	%ebp
  101060: 89 e5                        	movl	%esp, %ebp
  101062: 83 ec 08                     	subl	$8, %esp
  101065: 83 ec 04                     	subl	$4, %esp
  101068: ff 75 0c                     	pushl	12(%ebp)
  10106b: 6a 01                        	pushl	$1
  10106d: ff 75 08                     	pushl	8(%ebp)
  101070: e8 c9 fe ff ff               	calll	0x100f3e <kmalloc_helper>
  101075: 83 c4 10                     	addl	$16, %esp
  101078: c9                           	leave
  101079: c3                           	retl

0010107a <kfree>:
  10107a: 55                           	pushl	%ebp
  10107b: 89 e5                        	movl	%esp, %ebp
  10107d: 83 ec 08                     	subl	$8, %esp
  101080: a1 84 6c 10 00               	movl	1076356, %eax
  101085: 83 ec 08                     	subl	$8, %esp
  101088: 50                           	pushl	%eax
  101089: ff 75 08                     	pushl	8(%ebp)
  10108c: e8 89 06 00 00               	calll	0x10171a <free>
  101091: 83 c4 10                     	addl	$16, %esp
  101094: c9                           	leave
  101095: c3                           	retl

00101096 <find_smallest_hole>:
  101096: 55                           	pushl	%ebp
  101097: 89 e5                        	movl	%esp, %ebp
  101099: 83 ec 38                     	subl	$56, %esp
  10109c: 8b 45 0c                     	movl	12(%ebp), %eax
  10109f: 88 45 d4                     	movb	%al, -44(%ebp)
  1010a2: c7 45 f4 00 00 00 00         	movl	$0, -12(%ebp)
  1010a9: eb 6d                        	jmp	0x101118 <find_smallest_hole+0x82>
  1010ab: 8b 45 10                     	movl	16(%ebp), %eax
  1010ae: 83 ec 08                     	subl	$8, %esp
  1010b1: 50                           	pushl	%eax
  1010b2: ff 75 f4                     	pushl	-12(%ebp)
  1010b5: e8 29 11 00 00               	calll	0x1021e3 <lookup_ordered_array>
  1010ba: 83 c4 10                     	addl	$16, %esp
  1010bd: 89 45 ec                     	movl	%eax, -20(%ebp)
  1010c0: 80 7d d4 00                  	cmpb	$0, -44(%ebp)
  1010c4: 74 44                        	je	0x10110a <find_smallest_hole+0x74>
  1010c6: 8b 45 ec                     	movl	-20(%ebp), %eax
  1010c9: 89 45 e8                     	movl	%eax, -24(%ebp)
  1010cc: c7 45 f0 00 00 00 00         	movl	$0, -16(%ebp)
  1010d3: 8b 45 e8                     	movl	-24(%ebp), %eax
  1010d6: 83 e0 01                     	andl	$1, %eax
  1010d9: 85 c0                        	testl	%eax, %eax
  1010db: 74 17                        	je	0x1010f4 <find_smallest_hole+0x5e>
  1010dd: 8b 45 e8                     	movl	-24(%ebp), %eax
  1010e0: 83 c0 0c                     	addl	$12, %eax
  1010e3: 25 ff 0f 00 00               	andl	$4095, %eax
  1010e8: 89 c2                        	movl	%eax, %edx
  1010ea: b8 00 10 00 00               	movl	$4096, %eax
  1010ef: 29 d0                        	subl	%edx, %eax
  1010f1: 89 45 f0                     	movl	%eax, -16(%ebp)
  1010f4: 8b 45 ec                     	movl	-20(%ebp), %eax
  1010f7: 8b 40 08                     	movl	8(%eax), %eax
  1010fa: 2b 45 f0                     	subl	-16(%ebp), %eax
  1010fd: 89 45 e4                     	movl	%eax, -28(%ebp)
  101100: 8b 45 08                     	movl	8(%ebp), %eax
  101103: 39 45 e4                     	cmpl	%eax, -28(%ebp)
  101106: 7c 0d                        	jl	0x101115 <find_smallest_hole+0x7f>
  101108: eb 1c                        	jmp	0x101126 <find_smallest_hole+0x90>
  10110a: 8b 45 ec                     	movl	-20(%ebp), %eax
  10110d: 8b 40 08                     	movl	8(%eax), %eax
  101110: 39 45 08                     	cmpl	%eax, 8(%ebp)
  101113: 72 10                        	jb	0x101125 <find_smallest_hole+0x8f>
  101115: ff 45 f4                     	incl	-12(%ebp)
  101118: 8b 45 10                     	movl	16(%ebp), %eax
  10111b: 8b 40 04                     	movl	4(%eax), %eax
  10111e: 39 45 f4                     	cmpl	%eax, -12(%ebp)
  101121: 72 88                        	jb	0x1010ab <find_smallest_hole+0x15>
  101123: eb 01                        	jmp	0x101126 <find_smallest_hole+0x90>
  101125: 90                           	nop
  101126: 8b 45 10                     	movl	16(%ebp), %eax
  101129: 8b 40 04                     	movl	4(%eax), %eax
  10112c: 39 45 f4                     	cmpl	%eax, -12(%ebp)
  10112f: 75 07                        	jne	0x101138 <find_smallest_hole+0xa2>
  101131: b8 ff ff ff ff               	movl	$4294967295, %eax
  101136: eb 03                        	jmp	0x10113b <find_smallest_hole+0xa5>
  101138: 8b 45 f4                     	movl	-12(%ebp), %eax
  10113b: c9                           	leave
  10113c: c3                           	retl

0010113d <header_t_less_than>:
  10113d: 55                           	pushl	%ebp
  10113e: 89 e5                        	movl	%esp, %ebp
  101140: 8b 45 08                     	movl	8(%ebp), %eax
  101143: 8b 50 08                     	movl	8(%eax), %edx
  101146: 8b 45 0c                     	movl	12(%ebp), %eax
  101149: 8b 40 08                     	movl	8(%eax), %eax
  10114c: 39 c2                        	cmpl	%eax, %edx
  10114e: 0f 92 c0                     	setb	%al
  101151: 5d                           	popl	%ebp
  101152: c3                           	retl

00101153 <create_heap>:
  101153: 55                           	pushl	%ebp
  101154: 89 e5                        	movl	%esp, %ebp
  101156: 57                           	pushl	%edi
  101157: 56                           	pushl	%esi
  101158: 53                           	pushl	%ebx
  101159: 83 ec 3c                     	subl	$60, %esp
  10115c: 8b 55 14                     	movl	20(%ebp), %edx
  10115f: 8b 45 18                     	movl	24(%ebp), %eax
  101162: 88 55 d4                     	movb	%dl, -44(%ebp)
  101165: 88 45 d0                     	movb	%al, -48(%ebp)
  101168: 83 ec 0c                     	subl	$12, %esp
  10116b: 6a 20                        	pushl	$32
  10116d: e8 9e fe ff ff               	calll	0x101010 <kmalloc>
  101172: 83 c4 10                     	addl	$16, %esp
  101175: 89 45 e4                     	movl	%eax, -28(%ebp)
  101178: 8b 45 08                     	movl	8(%ebp), %eax
  10117b: 25 ff 0f 00 00               	andl	$4095, %eax
  101180: 85 c0                        	testl	%eax, %eax
  101182: 75 0c                        	jne	0x101190 <create_heap+0x3d>
  101184: 8b 45 0c                     	movl	12(%ebp), %eax
  101187: 25 ff 0f 00 00               	andl	$4095, %eax
  10118c: 85 c0                        	testl	%eax, %eax
  10118e: 74 0a                        	je	0x10119a <create_heap+0x47>
  101190: b8 00 00 00 00               	movl	$0, %eax
  101195: e9 b4 00 00 00               	jmp	0x10124e <create_heap+0xfb>
  10119a: 8b 55 08                     	movl	8(%ebp), %edx
  10119d: 8b 5d e4                     	movl	-28(%ebp), %ebx
  1011a0: 8d 45 b8                     	leal	-72(%ebp), %eax
  1011a3: 68 3d 11 10 00               	pushl	$1052989
  1011a8: 68 00 00 02 00               	pushl	$131072
  1011ad: 52                           	pushl	%edx
  1011ae: 50                           	pushl	%eax
  1011af: e8 d9 0e 00 00               	calll	0x10208d <place_ordered_array>
  1011b4: 83 c4 0c                     	addl	$12, %esp
  1011b7: 8d 45 b8                     	leal	-72(%ebp), %eax
  1011ba: ba 04 00 00 00               	movl	$4, %edx
  1011bf: 89 df                        	movl	%ebx, %edi
  1011c1: 89 c6                        	movl	%eax, %esi
  1011c3: 89 d1                        	movl	%edx, %ecx
  1011c5: f3 a5                        	rep		movsl	(%esi), %es:(%edi)
  1011c7: 81 45 08 00 00 08 00         	addl	$524288, 8(%ebp)
  1011ce: 8b 45 08                     	movl	8(%ebp), %eax
  1011d1: 83 e0 01                     	andl	$1, %eax
  1011d4: 85 c0                        	testl	%eax, %eax
  1011d6: 74 10                        	je	0x1011e8 <create_heap+0x95>
  1011d8: 8b 45 08                     	movl	8(%ebp), %eax
  1011db: 25 00 f0 ff ff               	andl	$4294963200, %eax
  1011e0: 05 00 10 00 00               	addl	$4096, %eax
  1011e5: 89 45 08                     	movl	%eax, 8(%ebp)
  1011e8: 8b 45 e4                     	movl	-28(%ebp), %eax
  1011eb: 8b 55 08                     	movl	8(%ebp), %edx
  1011ee: 89 50 10                     	movl	%edx, 16(%eax)
  1011f1: 8b 45 e4                     	movl	-28(%ebp), %eax
  1011f4: 8b 55 0c                     	movl	12(%ebp), %edx
  1011f7: 89 50 14                     	movl	%edx, 20(%eax)
  1011fa: 8b 45 e4                     	movl	-28(%ebp), %eax
  1011fd: 8b 55 10                     	movl	16(%ebp), %edx
  101200: 89 50 18                     	movl	%edx, 24(%eax)
  101203: 8b 45 e4                     	movl	-28(%ebp), %eax
  101206: 8a 55 d4                     	movb	-44(%ebp), %dl
  101209: 88 50 1c                     	movb	%dl, 28(%eax)
  10120c: 8b 45 e4                     	movl	-28(%ebp), %eax
  10120f: 8a 55 d0                     	movb	-48(%ebp), %dl
  101212: 88 50 1d                     	movb	%dl, 29(%eax)
  101215: 8b 45 08                     	movl	8(%ebp), %eax
  101218: 89 45 e0                     	movl	%eax, -32(%ebp)
  10121b: 8b 45 0c                     	movl	12(%ebp), %eax
  10121e: 2b 45 08                     	subl	8(%ebp), %eax
  101221: 89 c2                        	movl	%eax, %edx
  101223: 8b 45 e0                     	movl	-32(%ebp), %eax
  101226: 89 50 08                     	movl	%edx, 8(%eax)
  101229: 8b 45 e0                     	movl	-32(%ebp), %eax
  10122c: c7 00 5c 25 65 54            	movl	$1415914844, (%eax)
  101232: 8b 45 e0                     	movl	-32(%ebp), %eax
  101235: c6 40 04 01                  	movb	$1, 4(%eax)
  101239: 8b 45 e4                     	movl	-28(%ebp), %eax
  10123c: 83 ec 08                     	subl	$8, %esp
  10123f: 50                           	pushl	%eax
  101240: ff 75 e0                     	pushl	-32(%ebp)
  101243: e8 ab 0e 00 00               	calll	0x1020f3 <insert_ordered_array>
  101248: 83 c4 10                     	addl	$16, %esp
  10124b: 8b 45 e4                     	movl	-28(%ebp), %eax
  10124e: 8d 65 f4                     	leal	-12(%ebp), %esp
  101251: 5b                           	popl	%ebx
  101252: 5e                           	popl	%esi
  101253: 5f                           	popl	%edi
  101254: 5d                           	popl	%ebp
  101255: c3                           	retl

00101256 <expand>:
  101256: 55                           	pushl	%ebp
  101257: 89 e5                        	movl	%esp, %ebp
  101259: 56                           	pushl	%esi
  10125a: 53                           	pushl	%ebx
  10125b: 83 ec 10                     	subl	$16, %esp
  10125e: 8b 45 08                     	movl	8(%ebp), %eax
  101261: 8b 48 14                     	movl	20(%eax), %ecx
  101264: 8b 45 08                     	movl	8(%ebp), %eax
  101267: 8b 50 10                     	movl	16(%eax), %edx
  10126a: 89 c8                        	movl	%ecx, %eax
  10126c: 29 d0                        	subl	%edx, %eax
  10126e: 39 45 0c                     	cmpl	%eax, 12(%ebp)
  101271: 0f 82 b3 00 00 00            	jb	0x10132a <expand+0xd4>
  101277: 8b 45 0c                     	movl	12(%ebp), %eax
  10127a: 83 e0 01                     	andl	$1, %eax
  10127d: 85 c0                        	testl	%eax, %eax
  10127f: 74 10                        	je	0x101291 <expand+0x3b>
  101281: 8b 45 0c                     	movl	12(%ebp), %eax
  101284: 25 00 f0 ff ff               	andl	$4294963200, %eax
  101289: 05 00 10 00 00               	addl	$4096, %eax
  10128e: 89 45 0c                     	movl	%eax, 12(%ebp)
  101291: 8b 45 08                     	movl	8(%ebp), %eax
  101294: 8b 50 10                     	movl	16(%eax), %edx
  101297: 8b 45 0c                     	movl	12(%ebp), %eax
  10129a: 01 c2                        	addl	%eax, %edx
  10129c: 8b 45 08                     	movl	8(%ebp), %eax
  10129f: 8b 40 18                     	movl	24(%eax), %eax
  1012a2: 39 c2                        	cmpl	%eax, %edx
  1012a4: 0f 87 83 00 00 00            	ja	0x10132d <expand+0xd7>
  1012aa: 8b 45 08                     	movl	8(%ebp), %eax
  1012ad: 8b 48 14                     	movl	20(%eax), %ecx
  1012b0: 8b 45 08                     	movl	8(%ebp), %eax
  1012b3: 8b 50 10                     	movl	16(%eax), %edx
  1012b6: 89 c8                        	movl	%ecx, %eax
  1012b8: 29 d0                        	subl	%edx, %eax
  1012ba: 89 45 f4                     	movl	%eax, -12(%ebp)
  1012bd: eb 50                        	jmp	0x10130f <expand+0xb9>
  1012bf: 8b 45 08                     	movl	8(%ebp), %eax
  1012c2: 8a 40 1d                     	movb	29(%eax), %al
  1012c5: 84 c0                        	testb	%al, %al
  1012c7: 0f 94 c0                     	sete	%al
  1012ca: 0f b6 f0                     	movzbl	%al, %esi
  1012cd: 8b 45 08                     	movl	8(%ebp), %eax
  1012d0: 8a 40 1c                     	movb	28(%eax), %al
  1012d3: 84 c0                        	testb	%al, %al
  1012d5: 0f 95 c0                     	setne	%al
  1012d8: 0f b6 d8                     	movzbl	%al, %ebx
  1012db: a1 94 6c 10 00               	movl	1076372, %eax
  1012e0: 8b 55 08                     	movl	8(%ebp), %edx
  1012e3: 8b 4a 10                     	movl	16(%edx), %ecx
  1012e6: 8b 55 f4                     	movl	-12(%ebp), %edx
  1012e9: 01 ca                        	addl	%ecx, %edx
  1012eb: 83 ec 04                     	subl	$4, %esp
  1012ee: 50                           	pushl	%eax
  1012ef: 6a 01                        	pushl	$1
  1012f1: 52                           	pushl	%edx
  1012f2: e8 92 0b 00 00               	calll	0x101e89 <get_page>
  1012f7: 83 c4 10                     	addl	$16, %esp
  1012fa: 83 ec 04                     	subl	$4, %esp
  1012fd: 56                           	pushl	%esi
  1012fe: 53                           	pushl	%ebx
  1012ff: 50                           	pushl	%eax
  101300: e8 c7 07 00 00               	calll	0x101acc <alloc_frame>
  101305: 83 c4 10                     	addl	$16, %esp
  101308: 81 45 f4 00 10 00 00         	addl	$4096, -12(%ebp)
  10130f: 8b 45 f4                     	movl	-12(%ebp), %eax
  101312: 3b 45 0c                     	cmpl	12(%ebp), %eax
  101315: 72 a8                        	jb	0x1012bf <expand+0x69>
  101317: 8b 45 08                     	movl	8(%ebp), %eax
  10131a: 8b 50 10                     	movl	16(%eax), %edx
  10131d: 8b 45 0c                     	movl	12(%ebp), %eax
  101320: 01 c2                        	addl	%eax, %edx
  101322: 8b 45 08                     	movl	8(%ebp), %eax
  101325: 89 50 14                     	movl	%edx, 20(%eax)
  101328: eb 04                        	jmp	0x10132e <expand+0xd8>
  10132a: 90                           	nop
  10132b: eb 01                        	jmp	0x10132e <expand+0xd8>
  10132d: 90                           	nop
  10132e: 8d 65 f8                     	leal	-8(%ebp), %esp
  101331: 5b                           	popl	%ebx
  101332: 5e                           	popl	%esi
  101333: 5d                           	popl	%ebp
  101334: c3                           	retl

00101335 <contract>:
  101335: 55                           	pushl	%ebp
  101336: 89 e5                        	movl	%esp, %ebp
  101338: 83 ec 18                     	subl	$24, %esp
  10133b: 8b 45 08                     	movl	8(%ebp), %eax
  10133e: 8b 48 14                     	movl	20(%eax), %ecx
  101341: 8b 45 08                     	movl	8(%ebp), %eax
  101344: 8b 50 10                     	movl	16(%eax), %edx
  101347: 89 c8                        	movl	%ecx, %eax
  101349: 29 d0                        	subl	%edx, %eax
  10134b: 39 45 0c                     	cmpl	%eax, 12(%ebp)
  10134e: 76 0a                        	jbe	0x10135a <contract+0x25>
  101350: b8 ff ff ff ff               	movl	$4294967295, %eax
  101355: e9 93 00 00 00               	jmp	0x1013ed <contract+0xb8>
  10135a: 8b 45 0c                     	movl	12(%ebp), %eax
  10135d: 25 00 10 00 00               	andl	$4096, %eax
  101362: 85 c0                        	testl	%eax, %eax
  101364: 74 10                        	je	0x101376 <contract+0x41>
  101366: 8b 45 0c                     	movl	12(%ebp), %eax
  101369: 25 00 10 00 00               	andl	$4096, %eax
  10136e: 05 00 10 00 00               	addl	$4096, %eax
  101373: 89 45 0c                     	movl	%eax, 12(%ebp)
  101376: 81 7d 0c ff ff 06 00         	cmpl	$458751, 12(%ebp)
  10137d: 77 07                        	ja	0x101386 <contract+0x51>
  10137f: c7 45 0c 00 00 07 00         	movl	$458752, 12(%ebp)
  101386: 8b 45 08                     	movl	8(%ebp), %eax
  101389: 8b 50 14                     	movl	20(%eax), %edx
  10138c: 8b 45 08                     	movl	8(%ebp), %eax
  10138f: 8b 40 10                     	movl	16(%eax), %eax
  101392: 29 c2                        	subl	%eax, %edx
  101394: 8d 82 00 f0 ff ff            	leal	-4096(%edx), %eax
  10139a: 89 45 f4                     	movl	%eax, -12(%ebp)
  10139d: eb 32                        	jmp	0x1013d1 <contract+0x9c>
  10139f: a1 94 6c 10 00               	movl	1076372, %eax
  1013a4: 8b 55 08                     	movl	8(%ebp), %edx
  1013a7: 8b 4a 10                     	movl	16(%edx), %ecx
  1013aa: 8b 55 f4                     	movl	-12(%ebp), %edx
  1013ad: 01 ca                        	addl	%ecx, %edx
  1013af: 83 ec 04                     	subl	$4, %esp
  1013b2: 50                           	pushl	%eax
  1013b3: 6a 00                        	pushl	$0
  1013b5: 52                           	pushl	%edx
  1013b6: e8 ce 0a 00 00               	calll	0x101e89 <get_page>
  1013bb: 83 c4 10                     	addl	$16, %esp
  1013be: 83 ec 0c                     	subl	$12, %esp
  1013c1: 50                           	pushl	%eax
  1013c2: e8 93 07 00 00               	calll	0x101b5a <free_frame>
  1013c7: 83 c4 10                     	addl	$16, %esp
  1013ca: 81 6d f4 00 10 00 00         	subl	$4096, -12(%ebp)
  1013d1: 8b 45 0c                     	movl	12(%ebp), %eax
  1013d4: 3b 45 f4                     	cmpl	-12(%ebp), %eax
  1013d7: 72 c6                        	jb	0x10139f <contract+0x6a>
  1013d9: 8b 45 08                     	movl	8(%ebp), %eax
  1013dc: 8b 50 10                     	movl	16(%eax), %edx
  1013df: 8b 45 0c                     	movl	12(%ebp), %eax
  1013e2: 01 c2                        	addl	%eax, %edx
  1013e4: 8b 45 08                     	movl	8(%ebp), %eax
  1013e7: 89 50 14                     	movl	%edx, 20(%eax)
  1013ea: 8b 45 0c                     	movl	12(%ebp), %eax
  1013ed: c9                           	leave
  1013ee: c3                           	retl

001013ef <alloc>:
  1013ef: 55                           	pushl	%ebp
  1013f0: 89 e5                        	movl	%esp, %ebp
  1013f2: 83 ec 78                     	subl	$120, %esp
  1013f5: 8b 45 0c                     	movl	12(%ebp), %eax
  1013f8: 88 45 94                     	movb	%al, -108(%ebp)
  1013fb: 8b 45 08                     	movl	8(%ebp), %eax
  1013fe: 83 c0 14                     	addl	$20, %eax
  101401: 89 45 f4                     	movl	%eax, -12(%ebp)
  101404: 0f b6 45 94                  	movzbl	-108(%ebp), %eax
  101408: 83 ec 04                     	subl	$4, %esp
  10140b: ff 75 10                     	pushl	16(%ebp)
  10140e: 50                           	pushl	%eax
  10140f: ff 75 08                     	pushl	8(%ebp)
  101412: e8 7f fc ff ff               	calll	0x101096 <find_smallest_hole>
  101417: 83 c4 10                     	addl	$16, %esp
  10141a: 89 45 f0                     	movl	%eax, -16(%ebp)
  10141d: 83 7d f0 ff                  	cmpl	$-1, -16(%ebp)
  101421: 0f 85 6f 01 00 00            	jne	0x101596 <alloc+0x1a7>
  101427: 8b 45 10                     	movl	16(%ebp), %eax
  10142a: 8b 48 14                     	movl	20(%eax), %ecx
  10142d: 8b 45 10                     	movl	16(%ebp), %eax
  101430: 8b 50 10                     	movl	16(%eax), %edx
  101433: 89 c8                        	movl	%ecx, %eax
  101435: 29 d0                        	subl	%edx, %eax
  101437: 89 45 bc                     	movl	%eax, -68(%ebp)
  10143a: 8b 45 10                     	movl	16(%ebp), %eax
  10143d: 8b 40 14                     	movl	20(%eax), %eax
  101440: 89 45 b8                     	movl	%eax, -72(%ebp)
  101443: 8b 55 bc                     	movl	-68(%ebp), %edx
  101446: 8b 45 f4                     	movl	-12(%ebp), %eax
  101449: 01 d0                        	addl	%edx, %eax
  10144b: 83 ec 08                     	subl	$8, %esp
  10144e: 50                           	pushl	%eax
  10144f: ff 75 10                     	pushl	16(%ebp)
  101452: e8 ff fd ff ff               	calll	0x101256 <expand>
  101457: 83 c4 10                     	addl	$16, %esp
  10145a: 8b 45 10                     	movl	16(%ebp), %eax
  10145d: 8b 48 14                     	movl	20(%eax), %ecx
  101460: 8b 45 10                     	movl	16(%ebp), %eax
  101463: 8b 50 10                     	movl	16(%eax), %edx
  101466: 89 c8                        	movl	%ecx, %eax
  101468: 29 d0                        	subl	%edx, %eax
  10146a: 89 45 b4                     	movl	%eax, -76(%ebp)
  10146d: c7 45 f0 00 00 00 00         	movl	$0, -16(%ebp)
  101474: c7 45 ec ff ff ff ff         	movl	$4294967295, -20(%ebp)
  10147b: c7 45 e8 00 00 00 00         	movl	$0, -24(%ebp)
  101482: eb 2d                        	jmp	0x1014b1 <alloc+0xc2>
  101484: 8b 55 10                     	movl	16(%ebp), %edx
  101487: 8b 45 f0                     	movl	-16(%ebp), %eax
  10148a: 83 ec 08                     	subl	$8, %esp
  10148d: 52                           	pushl	%edx
  10148e: 50                           	pushl	%eax
  10148f: e8 4f 0d 00 00               	calll	0x1021e3 <lookup_ordered_array>
  101494: 83 c4 10                     	addl	$16, %esp
  101497: 89 45 a0                     	movl	%eax, -96(%ebp)
  10149a: 8b 45 a0                     	movl	-96(%ebp), %eax
  10149d: 3b 45 e8                     	cmpl	-24(%ebp), %eax
  1014a0: 76 0c                        	jbe	0x1014ae <alloc+0xbf>
  1014a2: 8b 45 a0                     	movl	-96(%ebp), %eax
  1014a5: 89 45 e8                     	movl	%eax, -24(%ebp)
  1014a8: 8b 45 f0                     	movl	-16(%ebp), %eax
  1014ab: 89 45 ec                     	movl	%eax, -20(%ebp)
  1014ae: ff 45 f0                     	incl	-16(%ebp)
  1014b1: 8b 45 10                     	movl	16(%ebp), %eax
  1014b4: 8b 50 04                     	movl	4(%eax), %edx
  1014b7: 8b 45 f0                     	movl	-16(%ebp), %eax
  1014ba: 39 c2                        	cmpl	%eax, %edx
  1014bc: 77 c6                        	ja	0x101484 <alloc+0x95>
  1014be: 83 7d ec ff                  	cmpl	$-1, -20(%ebp)
  1014c2: 75 5b                        	jne	0x10151f <alloc+0x130>
  1014c4: 8b 45 b8                     	movl	-72(%ebp), %eax
  1014c7: 89 45 a8                     	movl	%eax, -88(%ebp)
  1014ca: 8b 45 a8                     	movl	-88(%ebp), %eax
  1014cd: c7 00 5c 25 65 54            	movl	$1415914844, (%eax)
  1014d3: 8b 45 a8                     	movl	-88(%ebp), %eax
  1014d6: c6 40 04 01                  	movb	$1, 4(%eax)
  1014da: 8b 45 b4                     	movl	-76(%ebp), %eax
  1014dd: 2b 45 bc                     	subl	-68(%ebp), %eax
  1014e0: 89 c2                        	movl	%eax, %edx
  1014e2: 8b 45 a8                     	movl	-88(%ebp), %eax
  1014e5: 89 50 08                     	movl	%edx, 8(%eax)
  1014e8: 8b 45 a8                     	movl	-88(%ebp), %eax
  1014eb: 8b 50 08                     	movl	8(%eax), %edx
  1014ee: 8b 45 b8                     	movl	-72(%ebp), %eax
  1014f1: 01 d0                        	addl	%edx, %eax
  1014f3: 83 e8 08                     	subl	$8, %eax
  1014f6: 89 45 a4                     	movl	%eax, -92(%ebp)
  1014f9: 8b 45 a4                     	movl	-92(%ebp), %eax
  1014fc: 8b 55 a8                     	movl	-88(%ebp), %edx
  1014ff: 89 50 04                     	movl	%edx, 4(%eax)
  101502: 8b 45 a4                     	movl	-92(%ebp), %eax
  101505: c7 00 5c 25 65 54            	movl	$1415914844, (%eax)
  10150b: 8b 45 10                     	movl	16(%ebp), %eax
  10150e: 83 ec 08                     	subl	$8, %esp
  101511: 50                           	pushl	%eax
  101512: ff 75 a8                     	pushl	-88(%ebp)
  101515: e8 d9 0b 00 00               	calll	0x1020f3 <insert_ordered_array>
  10151a: 83 c4 10                     	addl	$16, %esp
  10151d: eb 5c                        	jmp	0x10157b <alloc+0x18c>
  10151f: 8b 45 10                     	movl	16(%ebp), %eax
  101522: 83 ec 08                     	subl	$8, %esp
  101525: 50                           	pushl	%eax
  101526: ff 75 ec                     	pushl	-20(%ebp)
  101529: e8 b5 0c 00 00               	calll	0x1021e3 <lookup_ordered_array>
  10152e: 83 c4 10                     	addl	$16, %esp
  101531: 89 45 b0                     	movl	%eax, -80(%ebp)
  101534: 8b 45 b0                     	movl	-80(%ebp), %eax
  101537: c6 40 04 01                  	movb	$1, 4(%eax)
  10153b: 8b 45 b0                     	movl	-80(%ebp), %eax
  10153e: c7 00 5c 25 65 54            	movl	$1415914844, (%eax)
  101544: 8b 45 b0                     	movl	-80(%ebp), %eax
  101547: 8b 50 08                     	movl	8(%eax), %edx
  10154a: 8b 45 b4                     	movl	-76(%ebp), %eax
  10154d: 2b 45 bc                     	subl	-68(%ebp), %eax
  101550: 01 c2                        	addl	%eax, %edx
  101552: 8b 45 b0                     	movl	-80(%ebp), %eax
  101555: 89 50 08                     	movl	%edx, 8(%eax)
  101558: 8b 45 b0                     	movl	-80(%ebp), %eax
  10155b: 8b 50 08                     	movl	8(%eax), %edx
  10155e: 8b 45 b0                     	movl	-80(%ebp), %eax
  101561: 01 d0                        	addl	%edx, %eax
  101563: 83 e8 08                     	subl	$8, %eax
  101566: 89 45 ac                     	movl	%eax, -84(%ebp)
  101569: 8b 45 ac                     	movl	-84(%ebp), %eax
  10156c: 8b 55 b0                     	movl	-80(%ebp), %edx
  10156f: 89 50 04                     	movl	%edx, 4(%eax)
  101572: 8b 45 ac                     	movl	-84(%ebp), %eax
  101575: c7 00 5c 25 65 54            	movl	$1415914844, (%eax)
  10157b: 0f b6 45 94                  	movzbl	-108(%ebp), %eax
  10157f: 83 ec 04                     	subl	$4, %esp
  101582: ff 75 10                     	pushl	16(%ebp)
  101585: 50                           	pushl	%eax
  101586: ff 75 08                     	pushl	8(%ebp)
  101589: e8 61 fe ff ff               	calll	0x1013ef <alloc>
  10158e: 83 c4 10                     	addl	$16, %esp
  101591: e9 82 01 00 00               	jmp	0x101718 <alloc+0x329>
  101596: 8b 55 10                     	movl	16(%ebp), %edx
  101599: 8b 45 f0                     	movl	-16(%ebp), %eax
  10159c: 83 ec 08                     	subl	$8, %esp
  10159f: 52                           	pushl	%edx
  1015a0: 50                           	pushl	%eax
  1015a1: e8 3d 0c 00 00               	calll	0x1021e3 <lookup_ordered_array>
  1015a6: 83 c4 10                     	addl	$16, %esp
  1015a9: 89 45 dc                     	movl	%eax, -36(%ebp)
  1015ac: 8b 45 dc                     	movl	-36(%ebp), %eax
  1015af: 89 45 e4                     	movl	%eax, -28(%ebp)
  1015b2: 8b 45 dc                     	movl	-36(%ebp), %eax
  1015b5: 8b 40 08                     	movl	8(%eax), %eax
  1015b8: 89 45 e0                     	movl	%eax, -32(%ebp)
  1015bb: 8b 45 e0                     	movl	-32(%ebp), %eax
  1015be: 2b 45 f4                     	subl	-12(%ebp), %eax
  1015c1: 83 f8 13                     	cmpl	$19, %eax
  1015c4: 77 0f                        	ja	0x1015d5 <alloc+0x1e6>
  1015c6: 8b 45 e0                     	movl	-32(%ebp), %eax
  1015c9: 2b 45 f4                     	subl	-12(%ebp), %eax
  1015cc: 01 45 08                     	addl	%eax, 8(%ebp)
  1015cf: 8b 45 e0                     	movl	-32(%ebp), %eax
  1015d2: 89 45 f4                     	movl	%eax, -12(%ebp)
  1015d5: 80 7d 94 00                  	cmpb	$0, -108(%ebp)
  1015d9: 74 6f                        	je	0x10164a <alloc+0x25b>
  1015db: 8b 45 e4                     	movl	-28(%ebp), %eax
  1015de: 25 00 f0 ff ff               	andl	$4294963200, %eax
  1015e3: 85 c0                        	testl	%eax, %eax
  1015e5: 74 63                        	je	0x10164a <alloc+0x25b>
  1015e7: 8b 45 e4                     	movl	-28(%ebp), %eax
  1015ea: 25 00 f0 ff ff               	andl	$4294963200, %eax
  1015ef: 05 f4 0f 00 00               	addl	$4084, %eax
  1015f4: 89 45 d8                     	movl	%eax, -40(%ebp)
  1015f7: 8b 45 dc                     	movl	-36(%ebp), %eax
  1015fa: 89 45 d4                     	movl	%eax, -44(%ebp)
  1015fd: 8b 45 d4                     	movl	-44(%ebp), %eax
  101600: c6 40 04 01                  	movb	$1, 4(%eax)
  101604: 8b 45 d4                     	movl	-44(%ebp), %eax
  101607: c7 00 5c 25 65 54            	movl	$1415914844, (%eax)
  10160d: 8b 45 d4                     	movl	-44(%ebp), %eax
  101610: c7 40 08 00 10 00 00         	movl	$4096, 8(%eax)
  101617: 8b 45 d8                     	movl	-40(%ebp), %eax
  10161a: 83 e8 08                     	subl	$8, %eax
  10161d: 89 45 d0                     	movl	%eax, -48(%ebp)
  101620: 8b 45 d0                     	movl	-48(%ebp), %eax
  101623: c7 00 5c 25 65 54            	movl	$1415914844, (%eax)
  101629: 8b 45 d0                     	movl	-48(%ebp), %eax
  10162c: 8b 55 d4                     	movl	-44(%ebp), %edx
  10162f: 89 50 04                     	movl	%edx, 4(%eax)
  101632: 8b 45 d8                     	movl	-40(%ebp), %eax
  101635: 89 45 e4                     	movl	%eax, -28(%ebp)
  101638: 8b 4d e0                     	movl	-32(%ebp), %ecx
  10163b: 8b 45 d4                     	movl	-44(%ebp), %eax
  10163e: 8b 50 08                     	movl	8(%eax), %edx
  101641: 89 c8                        	movl	%ecx, %eax
  101643: 29 d0                        	subl	%edx, %eax
  101645: 89 45 e0                     	movl	%eax, -32(%ebp)
  101648: eb 13                        	jmp	0x10165d <alloc+0x26e>
  10164a: 8b 55 10                     	movl	16(%ebp), %edx
  10164d: 8b 45 f0                     	movl	-16(%ebp), %eax
  101650: 83 ec 08                     	subl	$8, %esp
  101653: 52                           	pushl	%edx
  101654: 50                           	pushl	%eax
  101655: e8 aa 0b 00 00               	calll	0x102204 <remove_ordered_array>
  10165a: 83 c4 10                     	addl	$16, %esp
  10165d: 8b 45 e4                     	movl	-28(%ebp), %eax
  101660: 89 45 cc                     	movl	%eax, -52(%ebp)
  101663: 8b 45 cc                     	movl	-52(%ebp), %eax
  101666: c7 00 5c 25 65 54            	movl	$1415914844, (%eax)
  10166c: 8b 45 cc                     	movl	-52(%ebp), %eax
  10166f: c6 40 04 00                  	movb	$0, 4(%eax)
  101673: 8b 45 cc                     	movl	-52(%ebp), %eax
  101676: 8b 55 f4                     	movl	-12(%ebp), %edx
  101679: 89 50 08                     	movl	%edx, 8(%eax)
  10167c: 8b 55 e4                     	movl	-28(%ebp), %edx
  10167f: 8b 45 08                     	movl	8(%ebp), %eax
  101682: 01 d0                        	addl	%edx, %eax
  101684: 83 c0 0c                     	addl	$12, %eax
  101687: 89 45 c8                     	movl	%eax, -56(%ebp)
  10168a: 8b 45 c8                     	movl	-56(%ebp), %eax
  10168d: 8b 55 cc                     	movl	-52(%ebp), %edx
  101690: 89 50 04                     	movl	%edx, 4(%eax)
  101693: 8b 45 c8                     	movl	-56(%ebp), %eax
  101696: c7 00 5c 25 65 54            	movl	$1415914844, (%eax)
  10169c: 8b 45 e0                     	movl	-32(%ebp), %eax
  10169f: 39 45 f4                     	cmpl	%eax, -12(%ebp)
  1016a2: 74 6e                        	je	0x101712 <alloc+0x323>
  1016a4: 8b 55 e4                     	movl	-28(%ebp), %edx
  1016a7: 8b 45 08                     	movl	8(%ebp), %eax
  1016aa: 01 d0                        	addl	%edx, %eax
  1016ac: 83 c0 14                     	addl	$20, %eax
  1016af: 89 45 c4                     	movl	%eax, -60(%ebp)
  1016b2: 8b 45 c4                     	movl	-60(%ebp), %eax
  1016b5: c7 00 5c 25 65 54            	movl	$1415914844, (%eax)
  1016bb: 8b 45 c4                     	movl	-60(%ebp), %eax
  1016be: c6 40 04 01                  	movb	$1, 4(%eax)
  1016c2: 8b 45 e0                     	movl	-32(%ebp), %eax
  1016c5: 2b 45 f4                     	subl	-12(%ebp), %eax
  1016c8: 89 c2                        	movl	%eax, %edx
  1016ca: 8b 45 c4                     	movl	-60(%ebp), %eax
  1016cd: 89 50 08                     	movl	%edx, 8(%eax)
  1016d0: 8b 45 c4                     	movl	-60(%ebp), %eax
  1016d3: 8b 50 08                     	movl	8(%eax), %edx
  1016d6: 8b 45 c4                     	movl	-60(%ebp), %eax
  1016d9: 01 d0                        	addl	%edx, %eax
  1016db: 83 e8 08                     	subl	$8, %eax
  1016de: 89 45 c0                     	movl	%eax, -64(%ebp)
  1016e1: 8b 45 10                     	movl	16(%ebp), %eax
  1016e4: 8b 50 14                     	movl	20(%eax), %edx
  1016e7: 8b 45 c0                     	movl	-64(%ebp), %eax
  1016ea: 39 c2                        	cmpl	%eax, %edx
  1016ec: 76 12                        	jbe	0x101700 <alloc+0x311>
  1016ee: 8b 45 c0                     	movl	-64(%ebp), %eax
  1016f1: c7 00 5c 25 65 54            	movl	$1415914844, (%eax)
  1016f7: 8b 45 c0                     	movl	-64(%ebp), %eax
  1016fa: 8b 55 c4                     	movl	-60(%ebp), %edx
  1016fd: 89 50 04                     	movl	%edx, 4(%eax)
  101700: 8b 45 10                     	movl	16(%ebp), %eax
  101703: 83 ec 08                     	subl	$8, %esp
  101706: 50                           	pushl	%eax
  101707: ff 75 c4                     	pushl	-60(%ebp)
  10170a: e8 e4 09 00 00               	calll	0x1020f3 <insert_ordered_array>
  10170f: 83 c4 10                     	addl	$16, %esp
  101712: 8b 45 cc                     	movl	-52(%ebp), %eax
  101715: 83 c0 0c                     	addl	$12, %eax
  101718: c9                           	leave
  101719: c3                           	retl

0010171a <free>:
  10171a: 55                           	pushl	%ebp
  10171b: 89 e5                        	movl	%esp, %ebp
  10171d: 83 ec 38                     	subl	$56, %esp
  101720: 83 7d 08 00                  	cmpl	$0, 8(%ebp)
  101724: 75 07                        	jne	0x10172d <free+0x13>
  101726: b0 00                        	movb	$0, %al
  101728: e9 24 02 00 00               	jmp	0x101951 <free+0x237>
  10172d: 8b 45 08                     	movl	8(%ebp), %eax
  101730: 83 e8 0c                     	subl	$12, %eax
  101733: 89 45 f4                     	movl	%eax, -12(%ebp)
  101736: 8b 45 f4                     	movl	-12(%ebp), %eax
  101739: 8b 50 08                     	movl	8(%eax), %edx
  10173c: 8b 45 f4                     	movl	-12(%ebp), %eax
  10173f: 01 d0                        	addl	%edx, %eax
  101741: 83 e8 08                     	subl	$8, %eax
  101744: 89 45 f0                     	movl	%eax, -16(%ebp)
  101747: 8b 45 f4                     	movl	-12(%ebp), %eax
  10174a: 8b 00                        	movl	(%eax), %eax
  10174c: 3d 5c 25 65 54               	cmpl	$1415914844, %eax
  101751: 75 0c                        	jne	0x10175f <free+0x45>
  101753: 8b 45 f0                     	movl	-16(%ebp), %eax
  101756: 8b 00                        	movl	(%eax), %eax
  101758: 3d 5c 25 65 54               	cmpl	$1415914844, %eax
  10175d: 74 07                        	je	0x101766 <free+0x4c>
  10175f: b0 ff                        	movb	$-1, %al
  101761: e9 eb 01 00 00               	jmp	0x101951 <free+0x237>
  101766: 8b 45 f4                     	movl	-12(%ebp), %eax
  101769: c6 40 04 01                  	movb	$1, 4(%eax)
  10176d: c6 45 ef 01                  	movb	$1, -17(%ebp)
  101771: 8b 45 f4                     	movl	-12(%ebp), %eax
  101774: 83 e8 08                     	subl	$8, %eax
  101777: 89 45 e0                     	movl	%eax, -32(%ebp)
  10177a: 8b 45 e0                     	movl	-32(%ebp), %eax
  10177d: 8b 00                        	movl	(%eax), %eax
  10177f: 3d 5c 25 65 54               	cmpl	$1415914844, %eax
  101784: 75 3d                        	jne	0x1017c3 <free+0xa9>
  101786: 8b 45 e0                     	movl	-32(%ebp), %eax
  101789: 8b 40 04                     	movl	4(%eax), %eax
  10178c: 8a 40 04                     	movb	4(%eax), %al
  10178f: 3c 01                        	cmpb	$1, %al
  101791: 75 30                        	jne	0x1017c3 <free+0xa9>
  101793: 8b 45 f4                     	movl	-12(%ebp), %eax
  101796: 8b 40 08                     	movl	8(%eax), %eax
  101799: 89 45 dc                     	movl	%eax, -36(%ebp)
  10179c: 8b 45 e0                     	movl	-32(%ebp), %eax
  10179f: 8b 40 04                     	movl	4(%eax), %eax
  1017a2: 89 45 f4                     	movl	%eax, -12(%ebp)
  1017a5: 8b 45 f0                     	movl	-16(%ebp), %eax
  1017a8: 8b 55 f4                     	movl	-12(%ebp), %edx
  1017ab: 89 50 04                     	movl	%edx, 4(%eax)
  1017ae: 8b 45 f4                     	movl	-12(%ebp), %eax
  1017b1: 8b 50 08                     	movl	8(%eax), %edx
  1017b4: 8b 45 dc                     	movl	-36(%ebp), %eax
  1017b7: 01 c2                        	addl	%eax, %edx
  1017b9: 8b 45 f4                     	movl	-12(%ebp), %eax
  1017bc: 89 50 08                     	movl	%edx, 8(%eax)
  1017bf: c6 45 ef 00                  	movb	$0, -17(%ebp)
  1017c3: 8b 45 f0                     	movl	-16(%ebp), %eax
  1017c6: 83 c0 08                     	addl	$8, %eax
  1017c9: 89 45 d8                     	movl	%eax, -40(%ebp)
  1017cc: 8b 45 d8                     	movl	-40(%ebp), %eax
  1017cf: 8b 00                        	movl	(%eax), %eax
  1017d1: 3d 5c 25 65 54               	cmpl	$1415914844, %eax
  1017d6: 0f 85 87 00 00 00            	jne	0x101863 <free+0x149>
  1017dc: 8b 45 d8                     	movl	-40(%ebp), %eax
  1017df: 8a 40 04                     	movb	4(%eax), %al
  1017e2: 84 c0                        	testb	%al, %al
  1017e4: 74 7d                        	je	0x101863 <free+0x149>
  1017e6: 8b 45 f4                     	movl	-12(%ebp), %eax
  1017e9: 8b 50 08                     	movl	8(%eax), %edx
  1017ec: 8b 45 d8                     	movl	-40(%ebp), %eax
  1017ef: 8b 40 08                     	movl	8(%eax), %eax
  1017f2: 01 c2                        	addl	%eax, %edx
  1017f4: 8b 45 f4                     	movl	-12(%ebp), %eax
  1017f7: 89 50 08                     	movl	%edx, 8(%eax)
  1017fa: 8b 45 d8                     	movl	-40(%ebp), %eax
  1017fd: 8b 50 08                     	movl	8(%eax), %edx
  101800: 8b 45 d8                     	movl	-40(%ebp), %eax
  101803: 01 d0                        	addl	%edx, %eax
  101805: 83 e8 08                     	subl	$8, %eax
  101808: 89 45 e0                     	movl	%eax, -32(%ebp)
  10180b: 8b 45 e0                     	movl	-32(%ebp), %eax
  10180e: 89 45 f0                     	movl	%eax, -16(%ebp)
  101811: c7 45 e8 00 00 00 00         	movl	$0, -24(%ebp)
  101818: eb 03                        	jmp	0x10181d <free+0x103>
  10181a: ff 45 e8                     	incl	-24(%ebp)
  10181d: 8b 45 0c                     	movl	12(%ebp), %eax
  101820: 8b 40 04                     	movl	4(%eax), %eax
  101823: 39 45 e8                     	cmpl	%eax, -24(%ebp)
  101826: 73 17                        	jae	0x10183f <free+0x125>
  101828: 8b 45 0c                     	movl	12(%ebp), %eax
  10182b: 83 ec 08                     	subl	$8, %esp
  10182e: 50                           	pushl	%eax
  10182f: ff 75 e8                     	pushl	-24(%ebp)
  101832: e8 ac 09 00 00               	calll	0x1021e3 <lookup_ordered_array>
  101837: 83 c4 10                     	addl	$16, %esp
  10183a: 39 45 d8                     	cmpl	%eax, -40(%ebp)
  10183d: 75 db                        	jne	0x10181a <free+0x100>
  10183f: 8b 45 0c                     	movl	12(%ebp), %eax
  101842: 8b 40 04                     	movl	4(%eax), %eax
  101845: 39 45 e8                     	cmpl	%eax, -24(%ebp)
  101848: 72 07                        	jb	0x101851 <free+0x137>
  10184a: b0 ff                        	movb	$-1, %al
  10184c: e9 00 01 00 00               	jmp	0x101951 <free+0x237>
  101851: 8b 45 0c                     	movl	12(%ebp), %eax
  101854: 83 ec 08                     	subl	$8, %esp
  101857: 50                           	pushl	%eax
  101858: ff 75 e8                     	pushl	-24(%ebp)
  10185b: e8 a4 09 00 00               	calll	0x102204 <remove_ordered_array>
  101860: 83 c4 10                     	addl	$16, %esp
  101863: 8b 45 f0                     	movl	-16(%ebp), %eax
  101866: 8d 50 08                     	leal	8(%eax), %edx
  101869: 8b 45 0c                     	movl	12(%ebp), %eax
  10186c: 8b 40 14                     	movl	20(%eax), %eax
  10186f: 39 c2                        	cmpl	%eax, %edx
  101871: 0f 85 c2 00 00 00            	jne	0x101939 <free+0x21f>
  101877: 8b 45 0c                     	movl	12(%ebp), %eax
  10187a: 8b 48 14                     	movl	20(%eax), %ecx
  10187d: 8b 45 0c                     	movl	12(%ebp), %eax
  101880: 8b 50 10                     	movl	16(%eax), %edx
  101883: 89 c8                        	movl	%ecx, %eax
  101885: 29 d0                        	subl	%edx, %eax
  101887: 89 45 d4                     	movl	%eax, -44(%ebp)
  10188a: 8b 4d f4                     	movl	-12(%ebp), %ecx
  10188d: 8b 45 0c                     	movl	12(%ebp), %eax
  101890: 8b 50 10                     	movl	16(%eax), %edx
  101893: 89 c8                        	movl	%ecx, %eax
  101895: 29 d0                        	subl	%edx, %eax
  101897: 83 ec 08                     	subl	$8, %esp
  10189a: 50                           	pushl	%eax
  10189b: ff 75 0c                     	pushl	12(%ebp)
  10189e: e8 92 fa ff ff               	calll	0x101335 <contract>
  1018a3: 83 c4 10                     	addl	$16, %esp
  1018a6: 89 45 d0                     	movl	%eax, -48(%ebp)
  1018a9: 8b 45 f4                     	movl	-12(%ebp), %eax
  1018ac: 8b 50 08                     	movl	8(%eax), %edx
  1018af: 8b 45 d0                     	movl	-48(%ebp), %eax
  1018b2: 2b 45 d4                     	subl	-44(%ebp), %eax
  1018b5: 01 d0                        	addl	%edx, %eax
  1018b7: 85 c0                        	testl	%eax, %eax
  1018b9: 74 33                        	je	0x1018ee <free+0x1d4>
  1018bb: 8b 45 d4                     	movl	-44(%ebp), %eax
  1018be: 2b 45 d0                     	subl	-48(%ebp), %eax
  1018c1: 89 c2                        	movl	%eax, %edx
  1018c3: 8b 45 f4                     	movl	-12(%ebp), %eax
  1018c6: 89 50 08                     	movl	%edx, 8(%eax)
  1018c9: 8b 45 f4                     	movl	-12(%ebp), %eax
  1018cc: 8b 50 08                     	movl	8(%eax), %edx
  1018cf: 8b 45 f4                     	movl	-12(%ebp), %eax
  1018d2: 01 d0                        	addl	%edx, %eax
  1018d4: 83 e8 08                     	subl	$8, %eax
  1018d7: 89 45 f0                     	movl	%eax, -16(%ebp)
  1018da: 8b 45 f0                     	movl	-16(%ebp), %eax
  1018dd: c7 00 5c 25 65 54            	movl	$1415914844, (%eax)
  1018e3: 8b 45 f0                     	movl	-16(%ebp), %eax
  1018e6: 8b 55 f4                     	movl	-12(%ebp), %edx
  1018e9: 89 50 04                     	movl	%edx, 4(%eax)
  1018ec: eb 4b                        	jmp	0x101939 <free+0x21f>
  1018ee: c7 45 e4 00 00 00 00         	movl	$0, -28(%ebp)
  1018f5: eb 03                        	jmp	0x1018fa <free+0x1e0>
  1018f7: ff 45 e4                     	incl	-28(%ebp)
  1018fa: 8b 45 0c                     	movl	12(%ebp), %eax
  1018fd: 8b 40 04                     	movl	4(%eax), %eax
  101900: 39 45 e4                     	cmpl	%eax, -28(%ebp)
  101903: 73 17                        	jae	0x10191c <free+0x202>
  101905: 8b 45 0c                     	movl	12(%ebp), %eax
  101908: 83 ec 08                     	subl	$8, %esp
  10190b: 50                           	pushl	%eax
  10190c: ff 75 e4                     	pushl	-28(%ebp)
  10190f: e8 cf 08 00 00               	calll	0x1021e3 <lookup_ordered_array>
  101914: 83 c4 10                     	addl	$16, %esp
  101917: 39 45 d8                     	cmpl	%eax, -40(%ebp)
  10191a: 75 db                        	jne	0x1018f7 <free+0x1dd>
  10191c: 8b 45 0c                     	movl	12(%ebp), %eax
  10191f: 8b 40 04                     	movl	4(%eax), %eax
  101922: 39 45 e4                     	cmpl	%eax, -28(%ebp)
  101925: 73 12                        	jae	0x101939 <free+0x21f>
  101927: 8b 45 0c                     	movl	12(%ebp), %eax
  10192a: 83 ec 08                     	subl	$8, %esp
  10192d: 50                           	pushl	%eax
  10192e: ff 75 e4                     	pushl	-28(%ebp)
  101931: e8 ce 08 00 00               	calll	0x102204 <remove_ordered_array>
  101936: 83 c4 10                     	addl	$16, %esp
  101939: 80 7d ef 00                  	cmpb	$0, -17(%ebp)
  10193d: 74 12                        	je	0x101951 <free+0x237>
  10193f: 8b 45 0c                     	movl	12(%ebp), %eax
  101942: 83 ec 08                     	subl	$8, %esp
  101945: 50                           	pushl	%eax
  101946: ff 75 f4                     	pushl	-12(%ebp)
  101949: e8 a5 07 00 00               	calll	0x1020f3 <insert_ordered_array>
  10194e: 83 c4 10                     	addl	$16, %esp
  101951: c9                           	leave
  101952: c3                           	retl

00101953 <set_frame>:
  101953: 55                           	pushl	%ebp
  101954: 89 e5                        	movl	%esp, %ebp
  101956: 53                           	pushl	%ebx
  101957: 83 ec 10                     	subl	$16, %esp
  10195a: 8b 45 08                     	movl	8(%ebp), %eax
  10195d: c1 e8 0c                     	shrl	$12, %eax
  101960: 89 45 f8                     	movl	%eax, -8(%ebp)
  101963: 8b 45 f8                     	movl	-8(%ebp), %eax
  101966: c1 e8 05                     	shrl	$5, %eax
  101969: 89 45 f4                     	movl	%eax, -12(%ebp)
  10196c: 8b 45 f8                     	movl	-8(%ebp), %eax
  10196f: 83 e0 1f                     	andl	$31, %eax
  101972: 89 45 f0                     	movl	%eax, -16(%ebp)
  101975: a1 88 6c 10 00               	movl	1076360, %eax
  10197a: 8b 55 f4                     	movl	-12(%ebp), %edx
  10197d: c1 e2 02                     	shll	$2, %edx
  101980: 01 d0                        	addl	%edx, %eax
  101982: 8b 10                        	movl	(%eax), %edx
  101984: 8b 45 f0                     	movl	-16(%ebp), %eax
  101987: bb 01 00 00 00               	movl	$1, %ebx
  10198c: 88 c1                        	movb	%al, %cl
  10198e: d3 e3                        	shll	%cl, %ebx
  101990: 89 d8                        	movl	%ebx, %eax
  101992: 89 c3                        	movl	%eax, %ebx
  101994: a1 88 6c 10 00               	movl	1076360, %eax
  101999: 8b 4d f4                     	movl	-12(%ebp), %ecx
  10199c: c1 e1 02                     	shll	$2, %ecx
  10199f: 01 c8                        	addl	%ecx, %eax
  1019a1: 09 da                        	orl	%ebx, %edx
  1019a3: 89 10                        	movl	%edx, (%eax)
  1019a5: 90                           	nop
  1019a6: 8b 5d fc                     	movl	-4(%ebp), %ebx
  1019a9: c9                           	leave
  1019aa: c3                           	retl

001019ab <clear_frame>:
  1019ab: 55                           	pushl	%ebp
  1019ac: 89 e5                        	movl	%esp, %ebp
  1019ae: 53                           	pushl	%ebx
  1019af: 83 ec 10                     	subl	$16, %esp
  1019b2: 8b 45 08                     	movl	8(%ebp), %eax
  1019b5: c1 e8 0c                     	shrl	$12, %eax
  1019b8: 89 45 f8                     	movl	%eax, -8(%ebp)
  1019bb: 8b 45 f8                     	movl	-8(%ebp), %eax
  1019be: c1 e8 05                     	shrl	$5, %eax
  1019c1: 89 45 f4                     	movl	%eax, -12(%ebp)
  1019c4: 8b 45 f8                     	movl	-8(%ebp), %eax
  1019c7: 83 e0 1f                     	andl	$31, %eax
  1019ca: 89 45 f0                     	movl	%eax, -16(%ebp)
  1019cd: a1 88 6c 10 00               	movl	1076360, %eax
  1019d2: 8b 55 f4                     	movl	-12(%ebp), %edx
  1019d5: c1 e2 02                     	shll	$2, %edx
  1019d8: 01 d0                        	addl	%edx, %eax
  1019da: 8b 10                        	movl	(%eax), %edx
  1019dc: 8b 45 f0                     	movl	-16(%ebp), %eax
  1019df: bb 01 00 00 00               	movl	$1, %ebx
  1019e4: 88 c1                        	movb	%al, %cl
  1019e6: d3 e3                        	shll	%cl, %ebx
  1019e8: 89 d8                        	movl	%ebx, %eax
  1019ea: f7 d0                        	notl	%eax
  1019ec: 89 c3                        	movl	%eax, %ebx
  1019ee: a1 88 6c 10 00               	movl	1076360, %eax
  1019f3: 8b 4d f4                     	movl	-12(%ebp), %ecx
  1019f6: c1 e1 02                     	shll	$2, %ecx
  1019f9: 01 c8                        	addl	%ecx, %eax
  1019fb: 21 da                        	andl	%ebx, %edx
  1019fd: 89 10                        	movl	%edx, (%eax)
  1019ff: 90                           	nop
  101a00: 8b 5d fc                     	movl	-4(%ebp), %ebx
  101a03: c9                           	leave
  101a04: c3                           	retl

00101a05 <test_frame>:
  101a05: 55                           	pushl	%ebp
  101a06: 89 e5                        	movl	%esp, %ebp
  101a08: 53                           	pushl	%ebx
  101a09: 83 ec 10                     	subl	$16, %esp
  101a0c: 8b 45 08                     	movl	8(%ebp), %eax
  101a0f: c1 e8 0c                     	shrl	$12, %eax
  101a12: 89 45 f8                     	movl	%eax, -8(%ebp)
  101a15: 8b 45 f8                     	movl	-8(%ebp), %eax
  101a18: c1 e8 05                     	shrl	$5, %eax
  101a1b: 89 45 f4                     	movl	%eax, -12(%ebp)
  101a1e: 8b 45 f8                     	movl	-8(%ebp), %eax
  101a21: 83 e0 1f                     	andl	$31, %eax
  101a24: 89 45 f0                     	movl	%eax, -16(%ebp)
  101a27: a1 88 6c 10 00               	movl	1076360, %eax
  101a2c: 8b 55 f4                     	movl	-12(%ebp), %edx
  101a2f: c1 e2 02                     	shll	$2, %edx
  101a32: 01 d0                        	addl	%edx, %eax
  101a34: 8b 10                        	movl	(%eax), %edx
  101a36: 8b 45 f0                     	movl	-16(%ebp), %eax
  101a39: bb 01 00 00 00               	movl	$1, %ebx
  101a3e: 88 c1                        	movb	%al, %cl
  101a40: d3 e3                        	shll	%cl, %ebx
  101a42: 89 d8                        	movl	%ebx, %eax
  101a44: 21 d0                        	andl	%edx, %eax
  101a46: 8b 5d fc                     	movl	-4(%ebp), %ebx
  101a49: c9                           	leave
  101a4a: c3                           	retl

00101a4b <first_frame>:
  101a4b: 55                           	pushl	%ebp
  101a4c: 89 e5                        	movl	%esp, %ebp
  101a4e: 83 ec 10                     	subl	$16, %esp
  101a51: c7 45 f8 00 00 00 00         	movl	$0, -8(%ebp)
  101a58: eb 5f                        	jmp	0x101ab9 <first_frame+0x6e>
  101a5a: a1 88 6c 10 00               	movl	1076360, %eax
  101a5f: 8b 55 f8                     	movl	-8(%ebp), %edx
  101a62: c1 e2 02                     	shll	$2, %edx
  101a65: 01 d0                        	addl	%edx, %eax
  101a67: 8b 00                        	movl	(%eax), %eax
  101a69: 83 f8 ff                     	cmpl	$-1, %eax
  101a6c: 74 48                        	je	0x101ab6 <first_frame+0x6b>
  101a6e: c7 45 fc 00 00 00 00         	movl	$0, -4(%ebp)
  101a75: eb 39                        	jmp	0x101ab0 <first_frame+0x65>
  101a77: 8b 45 fc                     	movl	-4(%ebp), %eax
  101a7a: ba 01 00 00 00               	movl	$1, %edx
  101a7f: 88 c1                        	movb	%al, %cl
  101a81: d3 e2                        	shll	%cl, %edx
  101a83: 89 d0                        	movl	%edx, %eax
  101a85: 89 45 f4                     	movl	%eax, -12(%ebp)
  101a88: a1 88 6c 10 00               	movl	1076360, %eax
  101a8d: 8b 55 f8                     	movl	-8(%ebp), %edx
  101a90: c1 e2 02                     	shll	$2, %edx
  101a93: 01 d0                        	addl	%edx, %eax
  101a95: 8b 00                        	movl	(%eax), %eax
  101a97: 23 45 f4                     	andl	-12(%ebp), %eax
  101a9a: 85 c0                        	testl	%eax, %eax
  101a9c: 75 0f                        	jne	0x101aad <first_frame+0x62>
  101a9e: 8b 45 f8                     	movl	-8(%ebp), %eax
  101aa1: c1 e0 05                     	shll	$5, %eax
  101aa4: 89 c2                        	movl	%eax, %edx
  101aa6: 8b 45 fc                     	movl	-4(%ebp), %eax
  101aa9: 01 d0                        	addl	%edx, %eax
  101aab: eb 1d                        	jmp	0x101aca <first_frame+0x7f>
  101aad: ff 45 fc                     	incl	-4(%ebp)
  101ab0: 83 7d fc 1f                  	cmpl	$31, -4(%ebp)
  101ab4: 76 c1                        	jbe	0x101a77 <first_frame+0x2c>
  101ab6: ff 45 f8                     	incl	-8(%ebp)
  101ab9: a1 8c 6c 10 00               	movl	1076364, %eax
  101abe: c1 e8 05                     	shrl	$5, %eax
  101ac1: 89 c2                        	movl	%eax, %edx
  101ac3: 8b 45 f8                     	movl	-8(%ebp), %eax
  101ac6: 39 c2                        	cmpl	%eax, %edx
  101ac8: 77 90                        	ja	0x101a5a <first_frame+0xf>
  101aca: c9                           	leave
  101acb: c3                           	retl

00101acc <alloc_frame>:
  101acc: 55                           	pushl	%ebp
  101acd: 89 e5                        	movl	%esp, %ebp
  101acf: 83 ec 10                     	subl	$16, %esp
  101ad2: 8b 45 08                     	movl	8(%ebp), %eax
  101ad5: 8b 00                        	movl	(%eax), %eax
  101ad7: 25 00 f0 ff ff               	andl	$4294963200, %eax
  101adc: 85 c0                        	testl	%eax, %eax
  101ade: 75 77                        	jne	0x101b57 <alloc_frame+0x8b>
  101ae0: e8 66 ff ff ff               	calll	0x101a4b <first_frame>
  101ae5: 89 45 fc                     	movl	%eax, -4(%ebp)
  101ae8: 8b 45 fc                     	movl	-4(%ebp), %eax
  101aeb: c1 e0 0c                     	shll	$12, %eax
  101aee: 50                           	pushl	%eax
  101aef: e8 5f fe ff ff               	calll	0x101953 <set_frame>
  101af4: 83 c4 04                     	addl	$4, %esp
  101af7: 8b 45 08                     	movl	8(%ebp), %eax
  101afa: 8a 10                        	movb	(%eax), %dl
  101afc: 83 ca 01                     	orl	$1, %edx
  101aff: 88 10                        	movb	%dl, (%eax)
  101b01: 83 7d 10 00                  	cmpl	$0, 16(%ebp)
  101b05: 0f 95 c2                     	setne	%dl
  101b08: 8b 45 08                     	movl	8(%ebp), %eax
  101b0b: 83 e2 01                     	andl	$1, %edx
  101b0e: 8d 0c 12                     	leal	(%edx,%edx), %ecx
  101b11: 8a 10                        	movb	(%eax), %dl
  101b13: 83 e2 fd                     	andl	$-3, %edx
  101b16: 09 ca                        	orl	%ecx, %edx
  101b18: 88 10                        	movb	%dl, (%eax)
  101b1a: 83 7d 0c 00                  	cmpl	$0, 12(%ebp)
  101b1e: 0f 94 c2                     	sete	%dl
  101b21: 8b 45 08                     	movl	8(%ebp), %eax
  101b24: 83 e2 01                     	andl	$1, %edx
  101b27: 8d 0c 95 00 00 00 00         	leal	(,%edx,4), %ecx
  101b2e: 8a 10                        	movb	(%eax), %dl
  101b30: 83 e2 fb                     	andl	$-5, %edx
  101b33: 09 ca                        	orl	%ecx, %edx
  101b35: 88 10                        	movb	%dl, (%eax)
  101b37: 8b 45 fc                     	movl	-4(%ebp), %eax
  101b3a: 25 ff ff 0f 00               	andl	$1048575, %eax
  101b3f: 89 c2                        	movl	%eax, %edx
  101b41: 8b 45 08                     	movl	8(%ebp), %eax
  101b44: 89 d1                        	movl	%edx, %ecx
  101b46: c1 e1 0c                     	shll	$12, %ecx
  101b49: 8b 10                        	movl	(%eax), %edx
  101b4b: 81 e2 ff 0f 00 00            	andl	$4095, %edx
  101b51: 09 ca                        	orl	%ecx, %edx
  101b53: 89 10                        	movl	%edx, (%eax)
  101b55: eb 01                        	jmp	0x101b58 <alloc_frame+0x8c>
  101b57: 90                           	nop
  101b58: c9                           	leave
  101b59: c3                           	retl

00101b5a <free_frame>:
  101b5a: 55                           	pushl	%ebp
  101b5b: 89 e5                        	movl	%esp, %ebp
  101b5d: 83 ec 10                     	subl	$16, %esp
  101b60: 8b 45 08                     	movl	8(%ebp), %eax
  101b63: 8b 00                        	movl	(%eax), %eax
  101b65: c1 e8 0c                     	shrl	$12, %eax
  101b68: 89 45 fc                     	movl	%eax, -4(%ebp)
  101b6b: 83 7d fc 00                  	cmpl	$0, -4(%ebp)
  101b6f: 74 1a                        	je	0x101b8b <free_frame+0x31>
  101b71: ff 75 fc                     	pushl	-4(%ebp)
  101b74: e8 32 fe ff ff               	calll	0x1019ab <clear_frame>
  101b79: 83 c4 04                     	addl	$4, %esp
  101b7c: 8b 45 08                     	movl	8(%ebp), %eax
  101b7f: 8b 10                        	movl	(%eax), %edx
  101b81: 81 e2 ff 0f 00 00            	andl	$4095, %edx
  101b87: 89 10                        	movl	%edx, (%eax)
  101b89: eb 01                        	jmp	0x101b8c <free_frame+0x32>
  101b8b: 90                           	nop
  101b8c: c9                           	leave
  101b8d: c3                           	retl

00101b8e <initialize_paging>:
  101b8e: 55                           	pushl	%ebp
  101b8f: 89 e5                        	movl	%esp, %ebp
  101b91: 83 ec 18                     	subl	$24, %esp
  101b94: c7 45 f0 00 00 00 01         	movl	$16777216, -16(%ebp)
  101b9b: 8b 45 f0                     	movl	-16(%ebp), %eax
  101b9e: c1 e8 0c                     	shrl	$12, %eax
  101ba1: a3 8c 6c 10 00               	movl	%eax, 1076364
  101ba6: a1 8c 6c 10 00               	movl	1076364, %eax
  101bab: c1 e8 05                     	shrl	$5, %eax
  101bae: 83 ec 0c                     	subl	$12, %esp
  101bb1: 50                           	pushl	%eax
  101bb2: e8 59 f4 ff ff               	calll	0x101010 <kmalloc>
  101bb7: 83 c4 10                     	addl	$16, %esp
  101bba: a3 88 6c 10 00               	movl	%eax, 1076360
  101bbf: a1 8c 6c 10 00               	movl	1076364, %eax
  101bc4: c1 e8 05                     	shrl	$5, %eax
  101bc7: 89 c2                        	movl	%eax, %edx
  101bc9: a1 88 6c 10 00               	movl	1076360, %eax
  101bce: 83 ec 04                     	subl	$4, %esp
  101bd1: 52                           	pushl	%edx
  101bd2: 6a 00                        	pushl	$0
  101bd4: 50                           	pushl	%eax
  101bd5: e8 37 e9 ff ff               	calll	0x100511 <memset>
  101bda: 83 c4 10                     	addl	$16, %esp
  101bdd: 83 ec 0c                     	subl	$12, %esp
  101be0: 68 04 20 00 00               	pushl	$8196
  101be5: e8 40 f4 ff ff               	calll	0x10102a <kmalloc_aligned>
  101bea: 83 c4 10                     	addl	$16, %esp
  101bed: a3 94 6c 10 00               	movl	%eax, 1076372
  101bf2: a1 94 6c 10 00               	movl	1076372, %eax
  101bf7: 83 ec 04                     	subl	$4, %esp
  101bfa: 68 04 20 00 00               	pushl	$8196
  101bff: 6a 00                        	pushl	$0
  101c01: 50                           	pushl	%eax
  101c02: e8 0a e9 ff ff               	calll	0x100511 <memset>
  101c07: 83 c4 10                     	addl	$16, %esp
  101c0a: 8b 15 94 6c 10 00            	movl	1076372, %edx
  101c10: a1 94 6c 10 00               	movl	1076372, %eax
  101c15: 89 90 00 20 00 00            	movl	%edx, 8192(%eax)
  101c1b: a1 94 6c 10 00               	movl	1076372, %eax
  101c20: a3 90 6c 10 00               	movl	%eax, 1076368
  101c25: c7 45 f4 00 00 00 00         	movl	$0, -12(%ebp)
  101c2c: c7 45 f4 00 00 00 c0         	movl	$3221225472, -12(%ebp)
  101c33: eb 1f                        	jmp	0x101c54 <initialize_paging+0xc6>
  101c35: 8b 15 94 6c 10 00            	movl	1076372, %edx
  101c3b: 8b 45 f4                     	movl	-12(%ebp), %eax
  101c3e: 83 ec 04                     	subl	$4, %esp
  101c41: 52                           	pushl	%edx
  101c42: 6a 01                        	pushl	$1
  101c44: 50                           	pushl	%eax
  101c45: e8 3f 02 00 00               	calll	0x101e89 <get_page>
  101c4a: 83 c4 10                     	addl	$16, %esp
  101c4d: 81 45 f4 00 10 00 00         	addl	$4096, -12(%ebp)
  101c54: 8b 45 f4                     	movl	-12(%ebp), %eax
  101c57: 3d ff ff 0f c0               	cmpl	$3222274047, %eax
  101c5c: 76 d7                        	jbe	0x101c35 <initialize_paging+0xa7>
  101c5e: c7 45 f4 00 00 00 00         	movl	$0, -12(%ebp)
  101c65: eb 2f                        	jmp	0x101c96 <initialize_paging+0x108>
  101c67: 8b 15 94 6c 10 00            	movl	1076372, %edx
  101c6d: 8b 45 f4                     	movl	-12(%ebp), %eax
  101c70: 83 ec 04                     	subl	$4, %esp
  101c73: 52                           	pushl	%edx
  101c74: 6a 01                        	pushl	$1
  101c76: 50                           	pushl	%eax
  101c77: e8 0d 02 00 00               	calll	0x101e89 <get_page>
  101c7c: 83 c4 10                     	addl	$16, %esp
  101c7f: 83 ec 04                     	subl	$4, %esp
  101c82: 6a 00                        	pushl	$0
  101c84: 6a 00                        	pushl	$0
  101c86: 50                           	pushl	%eax
  101c87: e8 40 fe ff ff               	calll	0x101acc <alloc_frame>
  101c8c: 83 c4 10                     	addl	$16, %esp
  101c8f: 81 45 f4 00 10 00 00         	addl	$4096, -12(%ebp)
  101c96: a1 a0 30 10 00               	movl	1061024, %eax
  101c9b: 8d 90 00 10 00 00            	leal	4096(%eax), %edx
  101ca1: 8b 45 f4                     	movl	-12(%ebp), %eax
  101ca4: 39 c2                        	cmpl	%eax, %edx
  101ca6: 77 bf                        	ja	0x101c67 <initialize_paging+0xd9>
  101ca8: c7 45 f4 00 00 00 c0         	movl	$3221225472, -12(%ebp)
  101caf: eb 2f                        	jmp	0x101ce0 <initialize_paging+0x152>
  101cb1: 8b 15 94 6c 10 00            	movl	1076372, %edx
  101cb7: 8b 45 f4                     	movl	-12(%ebp), %eax
  101cba: 83 ec 04                     	subl	$4, %esp
  101cbd: 52                           	pushl	%edx
  101cbe: 6a 01                        	pushl	$1
  101cc0: 50                           	pushl	%eax
  101cc1: e8 c3 01 00 00               	calll	0x101e89 <get_page>
  101cc6: 83 c4 10                     	addl	$16, %esp
  101cc9: 83 ec 04                     	subl	$4, %esp
  101ccc: 6a 00                        	pushl	$0
  101cce: 6a 00                        	pushl	$0
  101cd0: 50                           	pushl	%eax
  101cd1: e8 f6 fd ff ff               	calll	0x101acc <alloc_frame>
  101cd6: 83 c4 10                     	addl	$16, %esp
  101cd9: 81 45 f4 00 10 00 00         	addl	$4096, -12(%ebp)
  101ce0: 8b 45 f4                     	movl	-12(%ebp), %eax
  101ce3: 3d ff ff 0f c0               	cmpl	$3222274047, %eax
  101ce8: 76 c7                        	jbe	0x101cb1 <initialize_paging+0x123>
  101cea: 83 ec 08                     	subl	$8, %esp
  101ced: 68 3f 1f 10 00               	pushl	$1056575
  101cf2: 6a 0e                        	pushl	$14
  101cf4: e8 fc ee ff ff               	calll	0x100bf5 <register_interrupt_handler>
  101cf9: 83 c4 10                     	addl	$16, %esp
  101cfc: a1 94 6c 10 00               	movl	1076372, %eax
  101d01: 83 ec 0c                     	subl	$12, %esp
  101d04: 50                           	pushl	%eax
  101d05: e8 50 01 00 00               	calll	0x101e5a <switch_page_directory>
  101d0a: 83 c4 10                     	addl	$16, %esp
  101d0d: 83 ec 0c                     	subl	$12, %esp
  101d10: 6a 00                        	pushl	$0
  101d12: 6a 00                        	pushl	$0
  101d14: 68 00 f0 ff cf               	pushl	$3489656832
  101d19: 68 00 00 10 c0               	pushl	$3222274048
  101d1e: 68 00 00 00 c0               	pushl	$3221225472
  101d23: e8 2b f4 ff ff               	calll	0x101153 <create_heap>
  101d28: 83 c4 20                     	addl	$32, %esp
  101d2b: a3 84 6c 10 00               	movl	%eax, 1076356
  101d30: a1 84 6c 10 00               	movl	1076356, %eax
  101d35: 85 c0                        	testl	%eax, %eax
  101d37: 0f 84 d6 00 00 00            	je	0x101e13 <initialize_paging+0x285>
  101d3d: 83 ec 0c                     	subl	$12, %esp
  101d40: 68 b4 31 10 00               	pushl	$1061300
  101d45: e8 76 e5 ff ff               	calll	0x1002c0 <monitor_write>
  101d4a: 83 c4 10                     	addl	$16, %esp
  101d4d: 83 ec 0c                     	subl	$12, %esp
  101d50: 68 d9 31 10 00               	pushl	$1061337
  101d55: e8 66 e5 ff ff               	calll	0x1002c0 <monitor_write>
  101d5a: 83 c4 10                     	addl	$16, %esp
  101d5d: a1 84 6c 10 00               	movl	1076356, %eax
  101d62: 8b 40 10                     	movl	16(%eax), %eax
  101d65: 83 ec 0c                     	subl	$12, %esp
  101d68: 50                           	pushl	%eax
  101d69: e8 52 e6 ff ff               	calll	0x1003c0 <monitor_write_hex>
  101d6e: 83 c4 10                     	addl	$16, %esp
  101d71: 83 ec 0c                     	subl	$12, %esp
  101d74: 6a 0a                        	pushl	$10
  101d76: e8 ab e3 ff ff               	calll	0x100126 <monitor_put>
  101d7b: 83 c4 10                     	addl	$16, %esp
  101d7e: 83 ec 0c                     	subl	$12, %esp
  101d81: 68 f3 31 10 00               	pushl	$1061363
  101d86: e8 35 e5 ff ff               	calll	0x1002c0 <monitor_write>
  101d8b: 83 c4 10                     	addl	$16, %esp
  101d8e: a1 84 6c 10 00               	movl	1076356, %eax
  101d93: 8b 40 14                     	movl	20(%eax), %eax
  101d96: 83 ec 0c                     	subl	$12, %esp
  101d99: 50                           	pushl	%eax
  101d9a: e8 21 e6 ff ff               	calll	0x1003c0 <monitor_write_hex>
  101d9f: 83 c4 10                     	addl	$16, %esp
  101da2: 83 ec 0c                     	subl	$12, %esp
  101da5: 6a 0a                        	pushl	$10
  101da7: e8 7a e3 ff ff               	calll	0x100126 <monitor_put>
  101dac: 83 c4 10                     	addl	$16, %esp
  101daf: 83 ec 0c                     	subl	$12, %esp
  101db2: 68 0c 32 10 00               	pushl	$1061388
  101db7: e8 04 e5 ff ff               	calll	0x1002c0 <monitor_write>
  101dbc: 83 c4 10                     	addl	$16, %esp
  101dbf: a1 84 6c 10 00               	movl	1076356, %eax
  101dc4: 8b 40 18                     	movl	24(%eax), %eax
  101dc7: 83 ec 0c                     	subl	$12, %esp
  101dca: 50                           	pushl	%eax
  101dcb: e8 f0 e5 ff ff               	calll	0x1003c0 <monitor_write_hex>
  101dd0: 83 c4 10                     	addl	$16, %esp
  101dd3: 83 ec 0c                     	subl	$12, %esp
  101dd6: 6a 0a                        	pushl	$10
  101dd8: e8 49 e3 ff ff               	calll	0x100126 <monitor_put>
  101ddd: 83 c4 10                     	addl	$16, %esp
  101de0: 83 ec 0c                     	subl	$12, %esp
  101de3: 68 2b 32 10 00               	pushl	$1061419
  101de8: e8 d3 e4 ff ff               	calll	0x1002c0 <monitor_write>
  101ded: 83 c4 10                     	addl	$16, %esp
  101df0: a1 84 6c 10 00               	movl	1076356, %eax
  101df5: 8b 40 04                     	movl	4(%eax), %eax
  101df8: 83 ec 0c                     	subl	$12, %esp
  101dfb: 50                           	pushl	%eax
  101dfc: e8 01 e5 ff ff               	calll	0x100302 <monitor_write_dec>
  101e01: 83 c4 10                     	addl	$16, %esp
  101e04: 83 ec 0c                     	subl	$12, %esp
  101e07: 6a 0a                        	pushl	$10
  101e09: e8 18 e3 ff ff               	calll	0x100126 <monitor_put>
  101e0e: 83 c4 10                     	addl	$16, %esp
  101e11: eb 10                        	jmp	0x101e23 <initialize_paging+0x295>
  101e13: 83 ec 0c                     	subl	$12, %esp
  101e16: 68 48 32 10 00               	pushl	$1061448
  101e1b: e8 a0 e4 ff ff               	calll	0x1002c0 <monitor_write>
  101e20: 83 c4 10                     	addl	$16, %esp
  101e23: 83 ec 0c                     	subl	$12, %esp
  101e26: 68 6c 32 10 00               	pushl	$1061484
  101e2b: e8 90 e4 ff ff               	calll	0x1002c0 <monitor_write>
  101e30: 83 c4 10                     	addl	$16, %esp
  101e33: a1 90 6c 10 00               	movl	1076368, %eax
  101e38: 8b 80 00 20 00 00            	movl	8192(%eax), %eax
  101e3e: 83 ec 0c                     	subl	$12, %esp
  101e41: 50                           	pushl	%eax
  101e42: e8 79 e5 ff ff               	calll	0x1003c0 <monitor_write_hex>
  101e47: 83 c4 10                     	addl	$16, %esp
  101e4a: 83 ec 0c                     	subl	$12, %esp
  101e4d: 6a 0a                        	pushl	$10
  101e4f: e8 d2 e2 ff ff               	calll	0x100126 <monitor_put>
  101e54: 83 c4 10                     	addl	$16, %esp
  101e57: 90                           	nop
  101e58: c9                           	leave
  101e59: c3                           	retl

00101e5a <switch_page_directory>:
  101e5a: 55                           	pushl	%ebp
  101e5b: 89 e5                        	movl	%esp, %ebp
  101e5d: 83 ec 10                     	subl	$16, %esp
  101e60: 8b 45 08                     	movl	8(%ebp), %eax
  101e63: a3 90 6c 10 00               	movl	%eax, 1076368
  101e68: 8b 45 08                     	movl	8(%ebp), %eax
  101e6b: 05 00 10 00 00               	addl	$4096, %eax
  101e70: 0f 22 d8                     	movl	%eax, %cr3
  101e73: 0f 20 c0                     	movl	%cr0, %eax
  101e76: 89 45 fc                     	movl	%eax, -4(%ebp)
  101e79: 81 4d fc 00 00 00 80         	orl	$2147483648, -4(%ebp)
  101e80: 8b 45 fc                     	movl	-4(%ebp), %eax
  101e83: 0f 22 c0                     	movl	%eax, %cr0
  101e86: 90                           	nop
  101e87: c9                           	leave
  101e88: c3                           	retl

00101e89 <get_page>:
  101e89: 55                           	pushl	%ebp
  101e8a: 89 e5                        	movl	%esp, %ebp
  101e8c: 83 ec 18                     	subl	$24, %esp
  101e8f: 8b 45 08                     	movl	8(%ebp), %eax
  101e92: c1 e8 0c                     	shrl	$12, %eax
  101e95: 89 45 08                     	movl	%eax, 8(%ebp)
  101e98: 8b 45 08                     	movl	8(%ebp), %eax
  101e9b: c1 e8 0a                     	shrl	$10, %eax
  101e9e: 89 45 f4                     	movl	%eax, -12(%ebp)
  101ea1: 8b 45 10                     	movl	16(%ebp), %eax
  101ea4: 8b 55 f4                     	movl	-12(%ebp), %edx
  101ea7: 8b 04 90                     	movl	(%eax,%edx,4), %eax
  101eaa: 85 c0                        	testl	%eax, %eax
  101eac: 74 19                        	je	0x101ec7 <get_page+0x3e>
  101eae: 8b 45 10                     	movl	16(%ebp), %eax
  101eb1: 8b 55 f4                     	movl	-12(%ebp), %edx
  101eb4: 8b 04 90                     	movl	(%eax,%edx,4), %eax
  101eb7: 8b 55 08                     	movl	8(%ebp), %edx
  101eba: 81 e2 ff 03 00 00            	andl	$1023, %edx
  101ec0: c1 e2 02                     	shll	$2, %edx
  101ec3: 01 d0                        	addl	%edx, %eax
  101ec5: eb 76                        	jmp	0x101f3d <get_page+0xb4>
  101ec7: 83 7d 0c 00                  	cmpl	$0, 12(%ebp)
  101ecb: 74 6b                        	je	0x101f38 <get_page+0xaf>
  101ecd: 83 ec 08                     	subl	$8, %esp
  101ed0: 8d 45 f0                     	leal	-16(%ebp), %eax
  101ed3: 50                           	pushl	%eax
  101ed4: 68 00 10 00 00               	pushl	$4096
  101ed9: e8 81 f1 ff ff               	calll	0x10105f <kmalloc_aligned_physical>
  101ede: 83 c4 10                     	addl	$16, %esp
  101ee1: 89 c1                        	movl	%eax, %ecx
  101ee3: 8b 45 10                     	movl	16(%ebp), %eax
  101ee6: 8b 55 f4                     	movl	-12(%ebp), %edx
  101ee9: 89 0c 90                     	movl	%ecx, (%eax,%edx,4)
  101eec: 8b 45 10                     	movl	16(%ebp), %eax
  101eef: 8b 55 f4                     	movl	-12(%ebp), %edx
  101ef2: 8b 04 90                     	movl	(%eax,%edx,4), %eax
  101ef5: 83 ec 04                     	subl	$4, %esp
  101ef8: 68 00 10 00 00               	pushl	$4096
  101efd: 6a 00                        	pushl	$0
  101eff: 50                           	pushl	%eax
  101f00: e8 0c e6 ff ff               	calll	0x100511 <memset>
  101f05: 83 c4 10                     	addl	$16, %esp
  101f08: 8b 45 f0                     	movl	-16(%ebp), %eax
  101f0b: 83 c8 07                     	orl	$7, %eax
  101f0e: 89 c1                        	movl	%eax, %ecx
  101f10: 8b 45 10                     	movl	16(%ebp), %eax
  101f13: 8b 55 f4                     	movl	-12(%ebp), %edx
  101f16: 81 c2 00 04 00 00            	addl	$1024, %edx
  101f1c: 89 0c 90                     	movl	%ecx, (%eax,%edx,4)
  101f1f: 8b 45 10                     	movl	16(%ebp), %eax
  101f22: 8b 55 f4                     	movl	-12(%ebp), %edx
  101f25: 8b 04 90                     	movl	(%eax,%edx,4), %eax
  101f28: 8b 55 08                     	movl	8(%ebp), %edx
  101f2b: 81 e2 ff 03 00 00            	andl	$1023, %edx
  101f31: c1 e2 02                     	shll	$2, %edx
  101f34: 01 d0                        	addl	%edx, %eax
  101f36: eb 05                        	jmp	0x101f3d <get_page+0xb4>
  101f38: b8 00 00 00 00               	movl	$0, %eax
  101f3d: c9                           	leave
  101f3e: c3                           	retl

00101f3f <page_fault_callback>:
  101f3f: 55                           	pushl	%ebp
  101f40: 89 e5                        	movl	%esp, %ebp
  101f42: 83 ec 28                     	subl	$40, %esp
  101f45: 0f 20 d0                     	movl	%cr2, %eax
  101f48: 89 45 f4                     	movl	%eax, -12(%ebp)
  101f4b: 8b 45 30                     	movl	48(%ebp), %eax
  101f4e: 83 e0 01                     	andl	$1, %eax
  101f51: 85 c0                        	testl	%eax, %eax
  101f53: 0f 94 c0                     	sete	%al
  101f56: 0f b6 c0                     	movzbl	%al, %eax
  101f59: 89 45 f0                     	movl	%eax, -16(%ebp)
  101f5c: 8b 45 30                     	movl	48(%ebp), %eax
  101f5f: 83 e0 02                     	andl	$2, %eax
  101f62: 89 45 ec                     	movl	%eax, -20(%ebp)
  101f65: 8b 45 30                     	movl	48(%ebp), %eax
  101f68: 83 e0 04                     	andl	$4, %eax
  101f6b: 89 45 e8                     	movl	%eax, -24(%ebp)
  101f6e: 8b 45 30                     	movl	48(%ebp), %eax
  101f71: 83 e0 10                     	andl	$16, %eax
  101f74: 89 45 e4                     	movl	%eax, -28(%ebp)
  101f77: 83 ec 0c                     	subl	$12, %esp
  101f7a: 68 95 32 10 00               	pushl	$1061525
  101f7f: e8 3c e3 ff ff               	calll	0x1002c0 <monitor_write>
  101f84: 83 c4 10                     	addl	$16, %esp
  101f87: 83 7d f0 00                  	cmpl	$0, -16(%ebp)
  101f8b: 74 10                        	je	0x101f9d <page_fault_callback+0x5e>
  101f8d: 83 ec 0c                     	subl	$12, %esp
  101f90: 68 a3 32 10 00               	pushl	$1061539
  101f95: e8 26 e3 ff ff               	calll	0x1002c0 <monitor_write>
  101f9a: 83 c4 10                     	addl	$16, %esp
  101f9d: 83 7d ec 00                  	cmpl	$0, -20(%ebp)
  101fa1: 74 10                        	je	0x101fb3 <page_fault_callback+0x74>
  101fa3: 83 ec 0c                     	subl	$12, %esp
  101fa6: 68 ac 32 10 00               	pushl	$1061548
  101fab: e8 10 e3 ff ff               	calll	0x1002c0 <monitor_write>
  101fb0: 83 c4 10                     	addl	$16, %esp
  101fb3: 83 7d e8 00                  	cmpl	$0, -24(%ebp)
  101fb7: 74 10                        	je	0x101fc9 <page_fault_callback+0x8a>
  101fb9: 83 ec 0c                     	subl	$12, %esp
  101fbc: 68 b7 32 10 00               	pushl	$1061559
  101fc1: e8 fa e2 ff ff               	calll	0x1002c0 <monitor_write>
  101fc6: 83 c4 10                     	addl	$16, %esp
  101fc9: 83 7d e4 00                  	cmpl	$0, -28(%ebp)
  101fcd: 74 10                        	je	0x101fdf <page_fault_callback+0xa0>
  101fcf: 83 ec 0c                     	subl	$12, %esp
  101fd2: 68 c1 32 10 00               	pushl	$1061569
  101fd7: e8 e4 e2 ff ff               	calll	0x1002c0 <monitor_write>
  101fdc: 83 c4 10                     	addl	$16, %esp
  101fdf: 83 ec 0c                     	subl	$12, %esp
  101fe2: 68 cb 32 10 00               	pushl	$1061579
  101fe7: e8 d4 e2 ff ff               	calll	0x1002c0 <monitor_write>
  101fec: 83 c4 10                     	addl	$16, %esp
  101fef: 83 ec 0c                     	subl	$12, %esp
  101ff2: ff 75 f4                     	pushl	-12(%ebp)
  101ff5: e8 c6 e3 ff ff               	calll	0x1003c0 <monitor_write_hex>
  101ffa: 83 c4 10                     	addl	$16, %esp
  101ffd: 83 ec 0c                     	subl	$12, %esp
  102000: 68 d1 32 10 00               	pushl	$1061585
  102005: e8 b6 e2 ff ff               	calll	0x1002c0 <monitor_write>
  10200a: 83 c4 10                     	addl	$16, %esp
  10200d: 90                           	nop
  10200e: c9                           	leave
  10200f: c3                           	retl

00102010 <standard_less_than_predicate>:
  102010: 55                           	pushl	%ebp
  102011: 89 e5                        	movl	%esp, %ebp
  102013: 8b 45 08                     	movl	8(%ebp), %eax
  102016: 3b 45 0c                     	cmpl	12(%ebp), %eax
  102019: 0f 92 c0                     	setb	%al
  10201c: 5d                           	popl	%ebp
  10201d: c3                           	retl

0010201e <create_ordered_array>:
  10201e: 55                           	pushl	%ebp
  10201f: 89 e5                        	movl	%esp, %ebp
  102021: 57                           	pushl	%edi
  102022: 56                           	pushl	%esi
  102023: 53                           	pushl	%ebx
  102024: 83 ec 1c                     	subl	$28, %esp
  102027: 8b 45 0c                     	movl	12(%ebp), %eax
  10202a: c1 e0 02                     	shll	$2, %eax
  10202d: 83 ec 0c                     	subl	$12, %esp
  102030: 50                           	pushl	%eax
  102031: e8 da ef ff ff               	calll	0x101010 <kmalloc>
  102036: 83 c4 10                     	addl	$16, %esp
  102039: 89 45 d8                     	movl	%eax, -40(%ebp)
  10203c: 8b 45 0c                     	movl	12(%ebp), %eax
  10203f: 8d 14 85 00 00 00 00         	leal	(,%eax,4), %edx
  102046: 8b 45 d8                     	movl	-40(%ebp), %eax
  102049: 83 ec 04                     	subl	$4, %esp
  10204c: 52                           	pushl	%edx
  10204d: 6a 00                        	pushl	$0
  10204f: 50                           	pushl	%eax
  102050: e8 bc e4 ff ff               	calll	0x100511 <memset>
  102055: 83 c4 10                     	addl	$16, %esp
  102058: c7 45 dc 00 00 00 00         	movl	$0, -36(%ebp)
  10205f: 8b 45 0c                     	movl	12(%ebp), %eax
  102062: 89 45 e0                     	movl	%eax, -32(%ebp)
  102065: 8b 45 10                     	movl	16(%ebp), %eax
  102068: 89 45 e4                     	movl	%eax, -28(%ebp)
  10206b: 8b 45 08                     	movl	8(%ebp), %eax
  10206e: 89 c3                        	movl	%eax, %ebx
  102070: 8d 45 d8                     	leal	-40(%ebp), %eax
  102073: ba 04 00 00 00               	movl	$4, %edx
  102078: 89 df                        	movl	%ebx, %edi
  10207a: 89 c6                        	movl	%eax, %esi
  10207c: 89 d1                        	movl	%edx, %ecx
  10207e: f3 a5                        	rep		movsl	(%esi), %es:(%edi)
  102080: 8b 45 08                     	movl	8(%ebp), %eax
  102083: 8d 65 f4                     	leal	-12(%ebp), %esp
  102086: 5b                           	popl	%ebx
  102087: 5e                           	popl	%esi
  102088: 5f                           	popl	%edi
  102089: 5d                           	popl	%ebp
  10208a: c2 04 00                     	retl	$4

0010208d <place_ordered_array>:
  10208d: 55                           	pushl	%ebp
  10208e: 89 e5                        	movl	%esp, %ebp
  102090: 57                           	pushl	%edi
  102091: 56                           	pushl	%esi
  102092: 53                           	pushl	%ebx
  102093: 83 ec 1c                     	subl	$28, %esp
  102096: 8b 45 0c                     	movl	12(%ebp), %eax
  102099: 89 45 d8                     	movl	%eax, -40(%ebp)
  10209c: 8b 45 10                     	movl	16(%ebp), %eax
  10209f: 8d 14 85 00 00 00 00         	leal	(,%eax,4), %edx
  1020a6: 8b 45 d8                     	movl	-40(%ebp), %eax
  1020a9: 83 ec 04                     	subl	$4, %esp
  1020ac: 52                           	pushl	%edx
  1020ad: 6a 00                        	pushl	$0
  1020af: 50                           	pushl	%eax
  1020b0: e8 5c e4 ff ff               	calll	0x100511 <memset>
  1020b5: 83 c4 10                     	addl	$16, %esp
  1020b8: c7 45 dc 00 00 00 00         	movl	$0, -36(%ebp)
  1020bf: 8b 45 10                     	movl	16(%ebp), %eax
  1020c2: 89 45 e0                     	movl	%eax, -32(%ebp)
  1020c5: 8b 45 14                     	movl	20(%ebp), %eax
  1020c8: 89 45 e4                     	movl	%eax, -28(%ebp)
  1020cb: 8b 45 08                     	movl	8(%ebp), %eax
  1020ce: 89 c3                        	movl	%eax, %ebx
  1020d0: 8d 45 d8                     	leal	-40(%ebp), %eax
  1020d3: ba 04 00 00 00               	movl	$4, %edx
  1020d8: 89 df                        	movl	%ebx, %edi
  1020da: 89 c6                        	movl	%eax, %esi
  1020dc: 89 d1                        	movl	%edx, %ecx
  1020de: f3 a5                        	rep		movsl	(%esi), %es:(%edi)
  1020e0: 8b 45 08                     	movl	8(%ebp), %eax
  1020e3: 8d 65 f4                     	leal	-12(%ebp), %esp
  1020e6: 5b                           	popl	%ebx
  1020e7: 5e                           	popl	%esi
  1020e8: 5f                           	popl	%edi
  1020e9: 5d                           	popl	%ebp
  1020ea: c2 04 00                     	retl	$4

001020ed <destroy_ordered_array>:
  1020ed: 55                           	pushl	%ebp
  1020ee: 89 e5                        	movl	%esp, %ebp
  1020f0: 90                           	nop
  1020f1: 5d                           	popl	%ebp
  1020f2: c3                           	retl

001020f3 <insert_ordered_array>:
  1020f3: 55                           	pushl	%ebp
  1020f4: 89 e5                        	movl	%esp, %ebp
  1020f6: 53                           	pushl	%ebx
  1020f7: 83 ec 14                     	subl	$20, %esp
  1020fa: 8b 45 0c                     	movl	12(%ebp), %eax
  1020fd: 8b 40 0c                     	movl	12(%eax), %eax
  102100: 85 c0                        	testl	%eax, %eax
  102102: 0f 84 d5 00 00 00            	je	0x1021dd <insert_ordered_array+0xea>
  102108: c7 45 f4 00 00 00 00         	movl	$0, -12(%ebp)
  10210f: eb 03                        	jmp	0x102114 <insert_ordered_array+0x21>
  102111: ff 45 f4                     	incl	-12(%ebp)
  102114: 8b 45 0c                     	movl	12(%ebp), %eax
  102117: 8b 40 04                     	movl	4(%eax), %eax
  10211a: 39 45 f4                     	cmpl	%eax, -12(%ebp)
  10211d: 73 25                        	jae	0x102144 <insert_ordered_array+0x51>
  10211f: 8b 45 0c                     	movl	12(%ebp), %eax
  102122: 8b 40 0c                     	movl	12(%eax), %eax
  102125: 8b 55 0c                     	movl	12(%ebp), %edx
  102128: 8b 12                        	movl	(%edx), %edx
  10212a: 8b 4d f4                     	movl	-12(%ebp), %ecx
  10212d: c1 e1 02                     	shll	$2, %ecx
  102130: 01 ca                        	addl	%ecx, %edx
  102132: 8b 12                        	movl	(%edx), %edx
  102134: 83 ec 08                     	subl	$8, %esp
  102137: ff 75 08                     	pushl	8(%ebp)
  10213a: 52                           	pushl	%edx
  10213b: ff d0                        	calll	*%eax
  10213d: 83 c4 10                     	addl	$16, %esp
  102140: 84 c0                        	testb	%al, %al
  102142: 75 cd                        	jne	0x102111 <insert_ordered_array+0x1e>
  102144: 8b 45 0c                     	movl	12(%ebp), %eax
  102147: 8b 40 04                     	movl	4(%eax), %eax
  10214a: 39 45 f4                     	cmpl	%eax, -12(%ebp)
  10214d: 75 21                        	jne	0x102170 <insert_ordered_array+0x7d>
  10214f: 8b 45 0c                     	movl	12(%ebp), %eax
  102152: 8b 18                        	movl	(%eax), %ebx
  102154: 8b 45 0c                     	movl	12(%ebp), %eax
  102157: 8b 40 04                     	movl	4(%eax), %eax
  10215a: 8d 48 01                     	leal	1(%eax), %ecx
  10215d: 8b 55 0c                     	movl	12(%ebp), %edx
  102160: 89 4a 04                     	movl	%ecx, 4(%edx)
  102163: c1 e0 02                     	shll	$2, %eax
  102166: 8d 14 03                     	leal	(%ebx,%eax), %edx
  102169: 8b 45 08                     	movl	8(%ebp), %eax
  10216c: 89 02                        	movl	%eax, (%edx)
  10216e: eb 6d                        	jmp	0x1021dd <insert_ordered_array+0xea>
  102170: 8b 45 0c                     	movl	12(%ebp), %eax
  102173: 8b 00                        	movl	(%eax), %eax
  102175: 8b 55 f4                     	movl	-12(%ebp), %edx
  102178: c1 e2 02                     	shll	$2, %edx
  10217b: 01 d0                        	addl	%edx, %eax
  10217d: 8b 00                        	movl	(%eax), %eax
  10217f: 89 45 f0                     	movl	%eax, -16(%ebp)
  102182: 8b 45 0c                     	movl	12(%ebp), %eax
  102185: 8b 00                        	movl	(%eax), %eax
  102187: 8b 55 f4                     	movl	-12(%ebp), %edx
  10218a: c1 e2 02                     	shll	$2, %edx
  10218d: 01 c2                        	addl	%eax, %edx
  10218f: 8b 45 08                     	movl	8(%ebp), %eax
  102192: 89 02                        	movl	%eax, (%edx)
  102194: eb 2d                        	jmp	0x1021c3 <insert_ordered_array+0xd0>
  102196: ff 45 f4                     	incl	-12(%ebp)
  102199: 8b 45 0c                     	movl	12(%ebp), %eax
  10219c: 8b 00                        	movl	(%eax), %eax
  10219e: 8b 55 f4                     	movl	-12(%ebp), %edx
  1021a1: c1 e2 02                     	shll	$2, %edx
  1021a4: 01 d0                        	addl	%edx, %eax
  1021a6: 8b 00                        	movl	(%eax), %eax
  1021a8: 89 45 ec                     	movl	%eax, -20(%ebp)
  1021ab: 8b 45 0c                     	movl	12(%ebp), %eax
  1021ae: 8b 00                        	movl	(%eax), %eax
  1021b0: 8b 55 f4                     	movl	-12(%ebp), %edx
  1021b3: c1 e2 02                     	shll	$2, %edx
  1021b6: 01 c2                        	addl	%eax, %edx
  1021b8: 8b 45 f0                     	movl	-16(%ebp), %eax
  1021bb: 89 02                        	movl	%eax, (%edx)
  1021bd: 8b 45 ec                     	movl	-20(%ebp), %eax
  1021c0: 89 45 f0                     	movl	%eax, -16(%ebp)
  1021c3: 8b 45 0c                     	movl	12(%ebp), %eax
  1021c6: 8b 40 04                     	movl	4(%eax), %eax
  1021c9: 39 45 f4                     	cmpl	%eax, -12(%ebp)
  1021cc: 72 c8                        	jb	0x102196 <insert_ordered_array+0xa3>
  1021ce: 8b 45 0c                     	movl	12(%ebp), %eax
  1021d1: 8b 40 04                     	movl	4(%eax), %eax
  1021d4: 8d 50 01                     	leal	1(%eax), %edx
  1021d7: 8b 45 0c                     	movl	12(%ebp), %eax
  1021da: 89 50 04                     	movl	%edx, 4(%eax)
  1021dd: 90                           	nop
  1021de: 8b 5d fc                     	movl	-4(%ebp), %ebx
  1021e1: c9                           	leave
  1021e2: c3                           	retl

001021e3 <lookup_ordered_array>:
  1021e3: 55                           	pushl	%ebp
  1021e4: 89 e5                        	movl	%esp, %ebp
  1021e6: 8b 45 0c                     	movl	12(%ebp), %eax
  1021e9: 8b 40 04                     	movl	4(%eax), %eax
  1021ec: 39 45 08                     	cmpl	%eax, 8(%ebp)
  1021ef: 73 11                        	jae	0x102202 <lookup_ordered_array+0x1f>
  1021f1: 8b 45 0c                     	movl	12(%ebp), %eax
  1021f4: 8b 00                        	movl	(%eax), %eax
  1021f6: 8b 55 08                     	movl	8(%ebp), %edx
  1021f9: c1 e2 02                     	shll	$2, %edx
  1021fc: 01 d0                        	addl	%edx, %eax
  1021fe: 8b 00                        	movl	(%eax), %eax
  102200: eb 00                        	jmp	0x102202 <lookup_ordered_array+0x1f>
  102202: 5d                           	popl	%ebp
  102203: c3                           	retl

00102204 <remove_ordered_array>:
  102204: 55                           	pushl	%ebp
  102205: 89 e5                        	movl	%esp, %ebp
  102207: eb 22                        	jmp	0x10222b <remove_ordered_array+0x27>
  102209: 8b 45 0c                     	movl	12(%ebp), %eax
  10220c: 8b 00                        	movl	(%eax), %eax
  10220e: ff 45 08                     	incl	8(%ebp)
  102211: 8b 55 08                     	movl	8(%ebp), %edx
  102214: c1 e2 02                     	shll	$2, %edx
  102217: 8d 0c 10                     	leal	(%eax,%edx), %ecx
  10221a: 8b 45 0c                     	movl	12(%ebp), %eax
  10221d: 8b 00                        	movl	(%eax), %eax
  10221f: 8b 55 08                     	movl	8(%ebp), %edx
  102222: c1 e2 02                     	shll	$2, %edx
  102225: 01 c2                        	addl	%eax, %edx
  102227: 8b 01                        	movl	(%ecx), %eax
  102229: 89 02                        	movl	%eax, (%edx)
  10222b: 8b 45 0c                     	movl	12(%ebp), %eax
  10222e: 8b 40 04                     	movl	4(%eax), %eax
  102231: 39 45 08                     	cmpl	%eax, 8(%ebp)
  102234: 72 d3                        	jb	0x102209 <remove_ordered_array+0x5>
  102236: 8b 45 0c                     	movl	12(%ebp), %eax
  102239: 8b 40 04                     	movl	4(%eax), %eax
  10223c: 8d 50 ff                     	leal	-1(%eax), %edx
  10223f: 8b 45 0c                     	movl	12(%ebp), %eax
  102242: 89 50 04                     	movl	%edx, 4(%eax)
  102245: 90                           	nop
  102246: 5d                           	popl	%ebp
  102247: c3                           	retl
  102248: 66 90                        	nop
  10224a: 66 90                        	nop
  10224c: 66 90                        	nop
  10224e: 66 90                        	nop
  102250: 66 90                        	nop
  102252: 66 90                        	nop
  102254: 66 90                        	nop
  102256: 66 90                        	nop
  102258: 66 90                        	nop
  10225a: 66 90                        	nop
  10225c: 66 90                        	nop
  10225e: 66 90                        	nop
  102260: 66 90                        	nop
  102262: 66 90                        	nop
  102264: 66 90                        	nop
  102266: 66 90                        	nop
  102268: 66 90                        	nop
  10226a: 66 90                        	nop
  10226c: 66 90                        	nop
  10226e: 66 90                        	nop
  102270: 66 90                        	nop
  102272: 66 90                        	nop
  102274: 66 90                        	nop
  102276: 66 90                        	nop
  102278: 66 90                        	nop
  10227a: 66 90                        	nop
  10227c: 66 90                        	nop
  10227e: 66 90                        	nop
  102280: 66 90                        	nop
  102282: 66 90                        	nop
  102284: 66 90                        	nop
  102286: 66 90                        	nop
  102288: 66 90                        	nop
  10228a: 66 90                        	nop
  10228c: 66 90                        	nop
  10228e: 66 90                        	nop
  102290: 66 90                        	nop
  102292: 66 90                        	nop
  102294: 66 90                        	nop
  102296: 66 90                        	nop
  102298: 66 90                        	nop
  10229a: 66 90                        	nop
  10229c: 66 90                        	nop
  10229e: 66 90                        	nop
  1022a0: 66 90                        	nop
  1022a2: 66 90                        	nop
  1022a4: 66 90                        	nop
  1022a6: 66 90                        	nop
  1022a8: 66 90                        	nop
  1022aa: 66 90                        	nop
  1022ac: 66 90                        	nop
  1022ae: 66 90                        	nop
  1022b0: 66 90                        	nop
  1022b2: 66 90                        	nop
  1022b4: 66 90                        	nop
  1022b6: 66 90                        	nop
  1022b8: 66 90                        	nop
  1022ba: 66 90                        	nop
  1022bc: 66 90                        	nop
  1022be: 66 90                        	nop
  1022c0: 66 90                        	nop
  1022c2: 66 90                        	nop
  1022c4: 66 90                        	nop
  1022c6: 66 90                        	nop
  1022c8: 66 90                        	nop
  1022ca: 66 90                        	nop
  1022cc: 66 90                        	nop
  1022ce: 66 90                        	nop
  1022d0: 66 90                        	nop
  1022d2: 66 90                        	nop
  1022d4: 66 90                        	nop
  1022d6: 66 90                        	nop
  1022d8: 66 90                        	nop
  1022da: 66 90                        	nop
  1022dc: 66 90                        	nop
  1022de: 66 90                        	nop
  1022e0: 66 90                        	nop
  1022e2: 66 90                        	nop
  1022e4: 66 90                        	nop
  1022e6: 66 90                        	nop
  1022e8: 66 90                        	nop
  1022ea: 66 90                        	nop
  1022ec: 66 90                        	nop
  1022ee: 66 90                        	nop
  1022f0: 66 90                        	nop
  1022f2: 66 90                        	nop
  1022f4: 66 90                        	nop
  1022f6: 66 90                        	nop
  1022f8: 66 90                        	nop
  1022fa: 66 90                        	nop
  1022fc: 66 90                        	nop
  1022fe: 66 90                        	nop
  102300: 66 90                        	nop
  102302: 66 90                        	nop
  102304: 66 90                        	nop
  102306: 66 90                        	nop
  102308: 66 90                        	nop
  10230a: 66 90                        	nop
  10230c: 66 90                        	nop
  10230e: 66 90                        	nop
  102310: 66 90                        	nop
  102312: 66 90                        	nop
  102314: 66 90                        	nop
  102316: 66 90                        	nop
  102318: 66 90                        	nop
  10231a: 66 90                        	nop
  10231c: 66 90                        	nop
  10231e: 66 90                        	nop
  102320: 66 90                        	nop
  102322: 66 90                        	nop
  102324: 66 90                        	nop
  102326: 66 90                        	nop
  102328: 66 90                        	nop
  10232a: 66 90                        	nop
  10232c: 66 90                        	nop
  10232e: 66 90                        	nop
  102330: 66 90                        	nop
  102332: 66 90                        	nop
  102334: 66 90                        	nop
  102336: 66 90                        	nop
  102338: 66 90                        	nop
  10233a: 66 90                        	nop
  10233c: 66 90                        	nop
  10233e: 66 90                        	nop
  102340: 66 90                        	nop
  102342: 66 90                        	nop
  102344: 66 90                        	nop
  102346: 66 90                        	nop
  102348: 66 90                        	nop
  10234a: 66 90                        	nop
  10234c: 66 90                        	nop
  10234e: 66 90                        	nop
  102350: 66 90                        	nop
  102352: 66 90                        	nop
  102354: 66 90                        	nop
  102356: 66 90                        	nop
  102358: 66 90                        	nop
  10235a: 66 90                        	nop
  10235c: 66 90                        	nop
  10235e: 66 90                        	nop
  102360: 66 90                        	nop
  102362: 66 90                        	nop
  102364: 66 90                        	nop
  102366: 66 90                        	nop
  102368: 66 90                        	nop
  10236a: 66 90                        	nop
  10236c: 66 90                        	nop
  10236e: 66 90                        	nop
  102370: 66 90                        	nop
  102372: 66 90                        	nop
  102374: 66 90                        	nop
  102376: 66 90                        	nop
  102378: 66 90                        	nop
  10237a: 66 90                        	nop
  10237c: 66 90                        	nop
  10237e: 66 90                        	nop
  102380: 66 90                        	nop
  102382: 66 90                        	nop
  102384: 66 90                        	nop
  102386: 66 90                        	nop
  102388: 66 90                        	nop
  10238a: 66 90                        	nop
  10238c: 66 90                        	nop
  10238e: 66 90                        	nop
  102390: 66 90                        	nop
  102392: 66 90                        	nop
  102394: 66 90                        	nop
  102396: 66 90                        	nop
  102398: 66 90                        	nop
  10239a: 66 90                        	nop
  10239c: 66 90                        	nop
  10239e: 66 90                        	nop
  1023a0: 66 90                        	nop
  1023a2: 66 90                        	nop
  1023a4: 66 90                        	nop
  1023a6: 66 90                        	nop
  1023a8: 66 90                        	nop
  1023aa: 66 90                        	nop
  1023ac: 66 90                        	nop
  1023ae: 66 90                        	nop
  1023b0: 66 90                        	nop
  1023b2: 66 90                        	nop
  1023b4: 66 90                        	nop
  1023b6: 66 90                        	nop
  1023b8: 66 90                        	nop
  1023ba: 66 90                        	nop
  1023bc: 66 90                        	nop
  1023be: 66 90                        	nop
  1023c0: 66 90                        	nop
  1023c2: 66 90                        	nop
  1023c4: 66 90                        	nop
  1023c6: 66 90                        	nop
  1023c8: 66 90                        	nop
  1023ca: 66 90                        	nop
  1023cc: 66 90                        	nop
  1023ce: 66 90                        	nop
  1023d0: 66 90                        	nop
  1023d2: 66 90                        	nop
  1023d4: 66 90                        	nop
  1023d6: 66 90                        	nop
  1023d8: 66 90                        	nop
  1023da: 66 90                        	nop
  1023dc: 66 90                        	nop
  1023de: 66 90                        	nop
  1023e0: 66 90                        	nop
  1023e2: 66 90                        	nop
  1023e4: 66 90                        	nop
  1023e6: 66 90                        	nop
  1023e8: 66 90                        	nop
  1023ea: 66 90                        	nop
  1023ec: 66 90                        	nop
  1023ee: 66 90                        	nop
  1023f0: 66 90                        	nop
  1023f2: 66 90                        	nop
  1023f4: 66 90                        	nop
  1023f6: 66 90                        	nop
  1023f8: 66 90                        	nop
  1023fa: 66 90                        	nop
  1023fc: 66 90                        	nop
  1023fe: 66 90                        	nop
  102400: 66 90                        	nop
  102402: 66 90                        	nop
  102404: 66 90                        	nop
  102406: 66 90                        	nop
  102408: 66 90                        	nop
  10240a: 66 90                        	nop
  10240c: 66 90                        	nop
  10240e: 66 90                        	nop
  102410: 66 90                        	nop
  102412: 66 90                        	nop
  102414: 66 90                        	nop
  102416: 66 90                        	nop
  102418: 66 90                        	nop
  10241a: 66 90                        	nop
  10241c: 66 90                        	nop
  10241e: 66 90                        	nop
  102420: 66 90                        	nop
  102422: 66 90                        	nop
  102424: 66 90                        	nop
  102426: 66 90                        	nop
  102428: 66 90                        	nop
  10242a: 66 90                        	nop
  10242c: 66 90                        	nop
  10242e: 66 90                        	nop
  102430: 66 90                        	nop
  102432: 66 90                        	nop
  102434: 66 90                        	nop
  102436: 66 90                        	nop
  102438: 66 90                        	nop
  10243a: 66 90                        	nop
  10243c: 66 90                        	nop
  10243e: 66 90                        	nop
  102440: 66 90                        	nop
  102442: 66 90                        	nop
  102444: 66 90                        	nop
  102446: 66 90                        	nop
  102448: 66 90                        	nop
  10244a: 66 90                        	nop
  10244c: 66 90                        	nop
  10244e: 66 90                        	nop
  102450: 66 90                        	nop
  102452: 66 90                        	nop
  102454: 66 90                        	nop
  102456: 66 90                        	nop
  102458: 66 90                        	nop
  10245a: 66 90                        	nop
  10245c: 66 90                        	nop
  10245e: 66 90                        	nop
  102460: 66 90                        	nop
  102462: 66 90                        	nop
  102464: 66 90                        	nop
  102466: 66 90                        	nop
  102468: 66 90                        	nop
  10246a: 66 90                        	nop
  10246c: 66 90                        	nop
  10246e: 66 90                        	nop
  102470: 66 90                        	nop
  102472: 66 90                        	nop
  102474: 66 90                        	nop
  102476: 66 90                        	nop
  102478: 66 90                        	nop
  10247a: 66 90                        	nop
  10247c: 66 90                        	nop
  10247e: 66 90                        	nop
  102480: 66 90                        	nop
  102482: 66 90                        	nop
  102484: 66 90                        	nop
  102486: 66 90                        	nop
  102488: 66 90                        	nop
  10248a: 66 90                        	nop
  10248c: 66 90                        	nop
  10248e: 66 90                        	nop
  102490: 66 90                        	nop
  102492: 66 90                        	nop
  102494: 66 90                        	nop
  102496: 66 90                        	nop
  102498: 66 90                        	nop
  10249a: 66 90                        	nop
  10249c: 66 90                        	nop
  10249e: 66 90                        	nop
  1024a0: 66 90                        	nop
  1024a2: 66 90                        	nop
  1024a4: 66 90                        	nop
  1024a6: 66 90                        	nop
  1024a8: 66 90                        	nop
  1024aa: 66 90                        	nop
  1024ac: 66 90                        	nop
  1024ae: 66 90                        	nop
  1024b0: 66 90                        	nop
  1024b2: 66 90                        	nop
  1024b4: 66 90                        	nop
  1024b6: 66 90                        	nop
  1024b8: 66 90                        	nop
  1024ba: 66 90                        	nop
  1024bc: 66 90                        	nop
  1024be: 66 90                        	nop
  1024c0: 66 90                        	nop
  1024c2: 66 90                        	nop
  1024c4: 66 90                        	nop
  1024c6: 66 90                        	nop
  1024c8: 66 90                        	nop
  1024ca: 66 90                        	nop
  1024cc: 66 90                        	nop
  1024ce: 66 90                        	nop
  1024d0: 66 90                        	nop
  1024d2: 66 90                        	nop
  1024d4: 66 90                        	nop
  1024d6: 66 90                        	nop
  1024d8: 66 90                        	nop
  1024da: 66 90                        	nop
  1024dc: 66 90                        	nop
  1024de: 66 90                        	nop
  1024e0: 66 90                        	nop
  1024e2: 66 90                        	nop
  1024e4: 66 90                        	nop
  1024e6: 66 90                        	nop
  1024e8: 66 90                        	nop
  1024ea: 66 90                        	nop
  1024ec: 66 90                        	nop
  1024ee: 66 90                        	nop
  1024f0: 66 90                        	nop
  1024f2: 66 90                        	nop
  1024f4: 66 90                        	nop
  1024f6: 66 90                        	nop
  1024f8: 66 90                        	nop
  1024fa: 66 90                        	nop
  1024fc: 66 90                        	nop
  1024fe: 66 90                        	nop
  102500: 66 90                        	nop
  102502: 66 90                        	nop
  102504: 66 90                        	nop
  102506: 66 90                        	nop
  102508: 66 90                        	nop
  10250a: 66 90                        	nop
  10250c: 66 90                        	nop
  10250e: 66 90                        	nop
  102510: 66 90                        	nop
  102512: 66 90                        	nop
  102514: 66 90                        	nop
  102516: 66 90                        	nop
  102518: 66 90                        	nop
  10251a: 66 90                        	nop
  10251c: 66 90                        	nop
  10251e: 66 90                        	nop
  102520: 66 90                        	nop
  102522: 66 90                        	nop
  102524: 66 90                        	nop
  102526: 66 90                        	nop
  102528: 66 90                        	nop
  10252a: 66 90                        	nop
  10252c: 66 90                        	nop
  10252e: 66 90                        	nop
  102530: 66 90                        	nop
  102532: 66 90                        	nop
  102534: 66 90                        	nop
  102536: 66 90                        	nop
  102538: 66 90                        	nop
  10253a: 66 90                        	nop
  10253c: 66 90                        	nop
  10253e: 66 90                        	nop
  102540: 66 90                        	nop
  102542: 66 90                        	nop
  102544: 66 90                        	nop
  102546: 66 90                        	nop
  102548: 66 90                        	nop
  10254a: 66 90                        	nop
  10254c: 66 90                        	nop
  10254e: 66 90                        	nop
  102550: 66 90                        	nop
  102552: 66 90                        	nop
  102554: 66 90                        	nop
  102556: 66 90                        	nop
  102558: 66 90                        	nop
  10255a: 66 90                        	nop
  10255c: 66 90                        	nop
  10255e: 66 90                        	nop
  102560: 66 90                        	nop
  102562: 66 90                        	nop
  102564: 66 90                        	nop
  102566: 66 90                        	nop
  102568: 66 90                        	nop
  10256a: 66 90                        	nop
  10256c: 66 90                        	nop
  10256e: 66 90                        	nop
  102570: 66 90                        	nop
  102572: 66 90                        	nop
  102574: 66 90                        	nop
  102576: 66 90                        	nop
  102578: 66 90                        	nop
  10257a: 66 90                        	nop
  10257c: 66 90                        	nop
  10257e: 66 90                        	nop
  102580: 66 90                        	nop
  102582: 66 90                        	nop
  102584: 66 90                        	nop
  102586: 66 90                        	nop
  102588: 66 90                        	nop
  10258a: 66 90                        	nop
  10258c: 66 90                        	nop
  10258e: 66 90                        	nop
  102590: 66 90                        	nop
  102592: 66 90                        	nop
  102594: 66 90                        	nop
  102596: 66 90                        	nop
  102598: 66 90                        	nop
  10259a: 66 90                        	nop
  10259c: 66 90                        	nop
  10259e: 66 90                        	nop
  1025a0: 66 90                        	nop
  1025a2: 66 90                        	nop
  1025a4: 66 90                        	nop
  1025a6: 66 90                        	nop
  1025a8: 66 90                        	nop
  1025aa: 66 90                        	nop
  1025ac: 66 90                        	nop
  1025ae: 66 90                        	nop
  1025b0: 66 90                        	nop
  1025b2: 66 90                        	nop
  1025b4: 66 90                        	nop
  1025b6: 66 90                        	nop
  1025b8: 66 90                        	nop
  1025ba: 66 90                        	nop
  1025bc: 66 90                        	nop
  1025be: 66 90                        	nop
  1025c0: 66 90                        	nop
  1025c2: 66 90                        	nop
  1025c4: 66 90                        	nop
  1025c6: 66 90                        	nop
  1025c8: 66 90                        	nop
  1025ca: 66 90                        	nop
  1025cc: 66 90                        	nop
  1025ce: 66 90                        	nop
  1025d0: 66 90                        	nop
  1025d2: 66 90                        	nop
  1025d4: 66 90                        	nop
  1025d6: 66 90                        	nop
  1025d8: 66 90                        	nop
  1025da: 66 90                        	nop
  1025dc: 66 90                        	nop
  1025de: 66 90                        	nop
  1025e0: 66 90                        	nop
  1025e2: 66 90                        	nop
  1025e4: 66 90                        	nop
  1025e6: 66 90                        	nop
  1025e8: 66 90                        	nop
  1025ea: 66 90                        	nop
  1025ec: 66 90                        	nop
  1025ee: 66 90                        	nop
  1025f0: 66 90                        	nop
  1025f2: 66 90                        	nop
  1025f4: 66 90                        	nop
  1025f6: 66 90                        	nop
  1025f8: 66 90                        	nop
  1025fa: 66 90                        	nop
  1025fc: 66 90                        	nop
  1025fe: 66 90                        	nop
  102600: 66 90                        	nop
  102602: 66 90                        	nop
  102604: 66 90                        	nop
  102606: 66 90                        	nop
  102608: 66 90                        	nop
  10260a: 66 90                        	nop
  10260c: 66 90                        	nop
  10260e: 66 90                        	nop
  102610: 66 90                        	nop
  102612: 66 90                        	nop
  102614: 66 90                        	nop
  102616: 66 90                        	nop
  102618: 66 90                        	nop
  10261a: 66 90                        	nop
  10261c: 66 90                        	nop
  10261e: 66 90                        	nop
  102620: 66 90                        	nop
  102622: 66 90                        	nop
  102624: 66 90                        	nop
  102626: 66 90                        	nop
  102628: 66 90                        	nop
  10262a: 66 90                        	nop
  10262c: 66 90                        	nop
  10262e: 66 90                        	nop
  102630: 66 90                        	nop
  102632: 66 90                        	nop
  102634: 66 90                        	nop
  102636: 66 90                        	nop
  102638: 66 90                        	nop
  10263a: 66 90                        	nop
  10263c: 66 90                        	nop
  10263e: 66 90                        	nop
  102640: 66 90                        	nop
  102642: 66 90                        	nop
  102644: 66 90                        	nop
  102646: 66 90                        	nop
  102648: 66 90                        	nop
  10264a: 66 90                        	nop
  10264c: 66 90                        	nop
  10264e: 66 90                        	nop
  102650: 66 90                        	nop
  102652: 66 90                        	nop
  102654: 66 90                        	nop
  102656: 66 90                        	nop
  102658: 66 90                        	nop
  10265a: 66 90                        	nop
  10265c: 66 90                        	nop
  10265e: 66 90                        	nop
  102660: 66 90                        	nop
  102662: 66 90                        	nop
  102664: 66 90                        	nop
  102666: 66 90                        	nop
  102668: 66 90                        	nop
  10266a: 66 90                        	nop
  10266c: 66 90                        	nop
  10266e: 66 90                        	nop
  102670: 66 90                        	nop
  102672: 66 90                        	nop
  102674: 66 90                        	nop
  102676: 66 90                        	nop
  102678: 66 90                        	nop
  10267a: 66 90                        	nop
  10267c: 66 90                        	nop
  10267e: 66 90                        	nop
  102680: 66 90                        	nop
  102682: 66 90                        	nop
  102684: 66 90                        	nop
  102686: 66 90                        	nop
  102688: 66 90                        	nop
  10268a: 66 90                        	nop
  10268c: 66 90                        	nop
  10268e: 66 90                        	nop
  102690: 66 90                        	nop
  102692: 66 90                        	nop
  102694: 66 90                        	nop
  102696: 66 90                        	nop
  102698: 66 90                        	nop
  10269a: 66 90                        	nop
  10269c: 66 90                        	nop
  10269e: 66 90                        	nop
  1026a0: 66 90                        	nop
  1026a2: 66 90                        	nop
  1026a4: 66 90                        	nop
  1026a6: 66 90                        	nop
  1026a8: 66 90                        	nop
  1026aa: 66 90                        	nop
  1026ac: 66 90                        	nop
  1026ae: 66 90                        	nop
  1026b0: 66 90                        	nop
  1026b2: 66 90                        	nop
  1026b4: 66 90                        	nop
  1026b6: 66 90                        	nop
  1026b8: 66 90                        	nop
  1026ba: 66 90                        	nop
  1026bc: 66 90                        	nop
  1026be: 66 90                        	nop
  1026c0: 66 90                        	nop
  1026c2: 66 90                        	nop
  1026c4: 66 90                        	nop
  1026c6: 66 90                        	nop
  1026c8: 66 90                        	nop
  1026ca: 66 90                        	nop
  1026cc: 66 90                        	nop
  1026ce: 66 90                        	nop
  1026d0: 66 90                        	nop
  1026d2: 66 90                        	nop
  1026d4: 66 90                        	nop
  1026d6: 66 90                        	nop
  1026d8: 66 90                        	nop
  1026da: 66 90                        	nop
  1026dc: 66 90                        	nop
  1026de: 66 90                        	nop
  1026e0: 66 90                        	nop
  1026e2: 66 90                        	nop
  1026e4: 66 90                        	nop
  1026e6: 66 90                        	nop
  1026e8: 66 90                        	nop
  1026ea: 66 90                        	nop
  1026ec: 66 90                        	nop
  1026ee: 66 90                        	nop
  1026f0: 66 90                        	nop
  1026f2: 66 90                        	nop
  1026f4: 66 90                        	nop
  1026f6: 66 90                        	nop
  1026f8: 66 90                        	nop
  1026fa: 66 90                        	nop
  1026fc: 66 90                        	nop
  1026fe: 66 90                        	nop
  102700: 66 90                        	nop
  102702: 66 90                        	nop
  102704: 66 90                        	nop
  102706: 66 90                        	nop
  102708: 66 90                        	nop
  10270a: 66 90                        	nop
  10270c: 66 90                        	nop
  10270e: 66 90                        	nop
  102710: 66 90                        	nop
  102712: 66 90                        	nop
  102714: 66 90                        	nop
  102716: 66 90                        	nop
  102718: 66 90                        	nop
  10271a: 66 90                        	nop
  10271c: 66 90                        	nop
  10271e: 66 90                        	nop
  102720: 66 90                        	nop
  102722: 66 90                        	nop
  102724: 66 90                        	nop
  102726: 66 90                        	nop
  102728: 66 90                        	nop
  10272a: 66 90                        	nop
  10272c: 66 90                        	nop
  10272e: 66 90                        	nop
  102730: 66 90                        	nop
  102732: 66 90                        	nop
  102734: 66 90                        	nop
  102736: 66 90                        	nop
  102738: 66 90                        	nop
  10273a: 66 90                        	nop
  10273c: 66 90                        	nop
  10273e: 66 90                        	nop
  102740: 66 90                        	nop
  102742: 66 90                        	nop
  102744: 66 90                        	nop
  102746: 66 90                        	nop
  102748: 66 90                        	nop
  10274a: 66 90                        	nop
  10274c: 66 90                        	nop
  10274e: 66 90                        	nop
  102750: 66 90                        	nop
  102752: 66 90                        	nop
  102754: 66 90                        	nop
  102756: 66 90                        	nop
  102758: 66 90                        	nop
  10275a: 66 90                        	nop
  10275c: 66 90                        	nop
  10275e: 66 90                        	nop
  102760: 66 90                        	nop
  102762: 66 90                        	nop
  102764: 66 90                        	nop
  102766: 66 90                        	nop
  102768: 66 90                        	nop
  10276a: 66 90                        	nop
  10276c: 66 90                        	nop
  10276e: 66 90                        	nop
  102770: 66 90                        	nop
  102772: 66 90                        	nop
  102774: 66 90                        	nop
  102776: 66 90                        	nop
  102778: 66 90                        	nop
  10277a: 66 90                        	nop
  10277c: 66 90                        	nop
  10277e: 66 90                        	nop
  102780: 66 90                        	nop
  102782: 66 90                        	nop
  102784: 66 90                        	nop
  102786: 66 90                        	nop
  102788: 66 90                        	nop
  10278a: 66 90                        	nop
  10278c: 66 90                        	nop
  10278e: 66 90                        	nop
  102790: 66 90                        	nop
  102792: 66 90                        	nop
  102794: 66 90                        	nop
  102796: 66 90                        	nop
  102798: 66 90                        	nop
  10279a: 66 90                        	nop
  10279c: 66 90                        	nop
  10279e: 66 90                        	nop
  1027a0: 66 90                        	nop
  1027a2: 66 90                        	nop
  1027a4: 66 90                        	nop
  1027a6: 66 90                        	nop
  1027a8: 66 90                        	nop
  1027aa: 66 90                        	nop
  1027ac: 66 90                        	nop
  1027ae: 66 90                        	nop
  1027b0: 66 90                        	nop
  1027b2: 66 90                        	nop
  1027b4: 66 90                        	nop
  1027b6: 66 90                        	nop
  1027b8: 66 90                        	nop
  1027ba: 66 90                        	nop
  1027bc: 66 90                        	nop
  1027be: 66 90                        	nop
  1027c0: 66 90                        	nop
  1027c2: 66 90                        	nop
  1027c4: 66 90                        	nop
  1027c6: 66 90                        	nop
  1027c8: 66 90                        	nop
  1027ca: 66 90                        	nop
  1027cc: 66 90                        	nop
  1027ce: 66 90                        	nop
  1027d0: 66 90                        	nop
  1027d2: 66 90                        	nop
  1027d4: 66 90                        	nop
  1027d6: 66 90                        	nop
  1027d8: 66 90                        	nop
  1027da: 66 90                        	nop
  1027dc: 66 90                        	nop
  1027de: 66 90                        	nop
  1027e0: 66 90                        	nop
  1027e2: 66 90                        	nop
  1027e4: 66 90                        	nop
  1027e6: 66 90                        	nop
  1027e8: 66 90                        	nop
  1027ea: 66 90                        	nop
  1027ec: 66 90                        	nop
  1027ee: 66 90                        	nop
  1027f0: 66 90                        	nop
  1027f2: 66 90                        	nop
  1027f4: 66 90                        	nop
  1027f6: 66 90                        	nop
  1027f8: 66 90                        	nop
  1027fa: 66 90                        	nop
  1027fc: 66 90                        	nop
  1027fe: 66 90                        	nop
  102800: 66 90                        	nop
  102802: 66 90                        	nop
  102804: 66 90                        	nop
  102806: 66 90                        	nop
  102808: 66 90                        	nop
  10280a: 66 90                        	nop
  10280c: 66 90                        	nop
  10280e: 66 90                        	nop
  102810: 66 90                        	nop
  102812: 66 90                        	nop
  102814: 66 90                        	nop
  102816: 66 90                        	nop
  102818: 66 90                        	nop
  10281a: 66 90                        	nop
  10281c: 66 90                        	nop
  10281e: 66 90                        	nop
  102820: 66 90                        	nop
  102822: 66 90                        	nop
  102824: 66 90                        	nop
  102826: 66 90                        	nop
  102828: 66 90                        	nop
  10282a: 66 90                        	nop
  10282c: 66 90                        	nop
  10282e: 66 90                        	nop
  102830: 66 90                        	nop
  102832: 66 90                        	nop
  102834: 66 90                        	nop
  102836: 66 90                        	nop
  102838: 66 90                        	nop
  10283a: 66 90                        	nop
  10283c: 66 90                        	nop
  10283e: 66 90                        	nop
  102840: 66 90                        	nop
  102842: 66 90                        	nop
  102844: 66 90                        	nop
  102846: 66 90                        	nop
  102848: 66 90                        	nop
  10284a: 66 90                        	nop
  10284c: 66 90                        	nop
  10284e: 66 90                        	nop
  102850: 66 90                        	nop
  102852: 66 90                        	nop
  102854: 66 90                        	nop
  102856: 66 90                        	nop
  102858: 66 90                        	nop
  10285a: 66 90                        	nop
  10285c: 66 90                        	nop
  10285e: 66 90                        	nop
  102860: 66 90                        	nop
  102862: 66 90                        	nop
  102864: 66 90                        	nop
  102866: 66 90                        	nop
  102868: 66 90                        	nop
  10286a: 66 90                        	nop
  10286c: 66 90                        	nop
  10286e: 66 90                        	nop
  102870: 66 90                        	nop
  102872: 66 90                        	nop
  102874: 66 90                        	nop
  102876: 66 90                        	nop
  102878: 66 90                        	nop
  10287a: 66 90                        	nop
  10287c: 66 90                        	nop
  10287e: 66 90                        	nop
  102880: 66 90                        	nop
  102882: 66 90                        	nop
  102884: 66 90                        	nop
  102886: 66 90                        	nop
  102888: 66 90                        	nop
  10288a: 66 90                        	nop
  10288c: 66 90                        	nop
  10288e: 66 90                        	nop
  102890: 66 90                        	nop
  102892: 66 90                        	nop
  102894: 66 90                        	nop
  102896: 66 90                        	nop
  102898: 66 90                        	nop
  10289a: 66 90                        	nop
  10289c: 66 90                        	nop
  10289e: 66 90                        	nop
  1028a0: 66 90                        	nop
  1028a2: 66 90                        	nop
  1028a4: 66 90                        	nop
  1028a6: 66 90                        	nop
  1028a8: 66 90                        	nop
  1028aa: 66 90                        	nop
  1028ac: 66 90                        	nop
  1028ae: 66 90                        	nop
  1028b0: 66 90                        	nop
  1028b2: 66 90                        	nop
  1028b4: 66 90                        	nop
  1028b6: 66 90                        	nop
  1028b8: 66 90                        	nop
  1028ba: 66 90                        	nop
  1028bc: 66 90                        	nop
  1028be: 66 90                        	nop
  1028c0: 66 90                        	nop
  1028c2: 66 90                        	nop
  1028c4: 66 90                        	nop
  1028c6: 66 90                        	nop
  1028c8: 66 90                        	nop
  1028ca: 66 90                        	nop
  1028cc: 66 90                        	nop
  1028ce: 66 90                        	nop
  1028d0: 66 90                        	nop
  1028d2: 66 90                        	nop
  1028d4: 66 90                        	nop
  1028d6: 66 90                        	nop
  1028d8: 66 90                        	nop
  1028da: 66 90                        	nop
  1028dc: 66 90                        	nop
  1028de: 66 90                        	nop
  1028e0: 66 90                        	nop
  1028e2: 66 90                        	nop
  1028e4: 66 90                        	nop
  1028e6: 66 90                        	nop
  1028e8: 66 90                        	nop
  1028ea: 66 90                        	nop
  1028ec: 66 90                        	nop
  1028ee: 66 90                        	nop
  1028f0: 66 90                        	nop
  1028f2: 66 90                        	nop
  1028f4: 66 90                        	nop
  1028f6: 66 90                        	nop
  1028f8: 66 90                        	nop
  1028fa: 66 90                        	nop
  1028fc: 66 90                        	nop
  1028fe: 66 90                        	nop
  102900: 66 90                        	nop
  102902: 66 90                        	nop
  102904: 66 90                        	nop
  102906: 66 90                        	nop
  102908: 66 90                        	nop
  10290a: 66 90                        	nop
  10290c: 66 90                        	nop
  10290e: 66 90                        	nop
  102910: 66 90                        	nop
  102912: 66 90                        	nop
  102914: 66 90                        	nop
  102916: 66 90                        	nop
  102918: 66 90                        	nop
  10291a: 66 90                        	nop
  10291c: 66 90                        	nop
  10291e: 66 90                        	nop
  102920: 66 90                        	nop
  102922: 66 90                        	nop
  102924: 66 90                        	nop
  102926: 66 90                        	nop
  102928: 66 90                        	nop
  10292a: 66 90                        	nop
  10292c: 66 90                        	nop
  10292e: 66 90                        	nop
  102930: 66 90                        	nop
  102932: 66 90                        	nop
  102934: 66 90                        	nop
  102936: 66 90                        	nop
  102938: 66 90                        	nop
  10293a: 66 90                        	nop
  10293c: 66 90                        	nop
  10293e: 66 90                        	nop
  102940: 66 90                        	nop
  102942: 66 90                        	nop
  102944: 66 90                        	nop
  102946: 66 90                        	nop
  102948: 66 90                        	nop
  10294a: 66 90                        	nop
  10294c: 66 90                        	nop
  10294e: 66 90                        	nop
  102950: 66 90                        	nop
  102952: 66 90                        	nop
  102954: 66 90                        	nop
  102956: 66 90                        	nop
  102958: 66 90                        	nop
  10295a: 66 90                        	nop
  10295c: 66 90                        	nop
  10295e: 66 90                        	nop
  102960: 66 90                        	nop
  102962: 66 90                        	nop
  102964: 66 90                        	nop
  102966: 66 90                        	nop
  102968: 66 90                        	nop
  10296a: 66 90                        	nop
  10296c: 66 90                        	nop
  10296e: 66 90                        	nop
  102970: 66 90                        	nop
  102972: 66 90                        	nop
  102974: 66 90                        	nop
  102976: 66 90                        	nop
  102978: 66 90                        	nop
  10297a: 66 90                        	nop
  10297c: 66 90                        	nop
  10297e: 66 90                        	nop
  102980: 66 90                        	nop
  102982: 66 90                        	nop
  102984: 66 90                        	nop
  102986: 66 90                        	nop
  102988: 66 90                        	nop
  10298a: 66 90                        	nop
  10298c: 66 90                        	nop
  10298e: 66 90                        	nop
  102990: 66 90                        	nop
  102992: 66 90                        	nop
  102994: 66 90                        	nop
  102996: 66 90                        	nop
  102998: 66 90                        	nop
  10299a: 66 90                        	nop
  10299c: 66 90                        	nop
  10299e: 66 90                        	nop
  1029a0: 66 90                        	nop
  1029a2: 66 90                        	nop
  1029a4: 66 90                        	nop
  1029a6: 66 90                        	nop
  1029a8: 66 90                        	nop
  1029aa: 66 90                        	nop
  1029ac: 66 90                        	nop
  1029ae: 66 90                        	nop
  1029b0: 66 90                        	nop
  1029b2: 66 90                        	nop
  1029b4: 66 90                        	nop
  1029b6: 66 90                        	nop
  1029b8: 66 90                        	nop
  1029ba: 66 90                        	nop
  1029bc: 66 90                        	nop
  1029be: 66 90                        	nop
  1029c0: 66 90                        	nop
  1029c2: 66 90                        	nop
  1029c4: 66 90                        	nop
  1029c6: 66 90                        	nop
  1029c8: 66 90                        	nop
  1029ca: 66 90                        	nop
  1029cc: 66 90                        	nop
  1029ce: 66 90                        	nop
  1029d0: 66 90                        	nop
  1029d2: 66 90                        	nop
  1029d4: 66 90                        	nop
  1029d6: 66 90                        	nop
  1029d8: 66 90                        	nop
  1029da: 66 90                        	nop
  1029dc: 66 90                        	nop
  1029de: 66 90                        	nop
  1029e0: 66 90                        	nop
  1029e2: 66 90                        	nop
  1029e4: 66 90                        	nop
  1029e6: 66 90                        	nop
  1029e8: 66 90                        	nop
  1029ea: 66 90                        	nop
  1029ec: 66 90                        	nop
  1029ee: 66 90                        	nop
  1029f0: 66 90                        	nop
  1029f2: 66 90                        	nop
  1029f4: 66 90                        	nop
  1029f6: 66 90                        	nop
  1029f8: 66 90                        	nop
  1029fa: 66 90                        	nop
  1029fc: 66 90                        	nop
  1029fe: 66 90                        	nop
  102a00: 66 90                        	nop
  102a02: 66 90                        	nop
  102a04: 66 90                        	nop
  102a06: 66 90                        	nop
  102a08: 66 90                        	nop
  102a0a: 66 90                        	nop
  102a0c: 66 90                        	nop
  102a0e: 66 90                        	nop
  102a10: 66 90                        	nop
  102a12: 66 90                        	nop
  102a14: 66 90                        	nop
  102a16: 66 90                        	nop
  102a18: 66 90                        	nop
  102a1a: 66 90                        	nop
  102a1c: 66 90                        	nop
  102a1e: 66 90                        	nop
  102a20: 66 90                        	nop
  102a22: 66 90                        	nop
  102a24: 66 90                        	nop
  102a26: 66 90                        	nop
  102a28: 66 90                        	nop
  102a2a: 66 90                        	nop
  102a2c: 66 90                        	nop
  102a2e: 66 90                        	nop
  102a30: 66 90                        	nop
  102a32: 66 90                        	nop
  102a34: 66 90                        	nop
  102a36: 66 90                        	nop
  102a38: 66 90                        	nop
  102a3a: 66 90                        	nop
  102a3c: 66 90                        	nop
  102a3e: 66 90                        	nop
  102a40: 66 90                        	nop
  102a42: 66 90                        	nop
  102a44: 66 90                        	nop
  102a46: 66 90                        	nop
  102a48: 66 90                        	nop
  102a4a: 66 90                        	nop
  102a4c: 66 90                        	nop
  102a4e: 66 90                        	nop
  102a50: 66 90                        	nop
  102a52: 66 90                        	nop
  102a54: 66 90                        	nop
  102a56: 66 90                        	nop
  102a58: 66 90                        	nop
  102a5a: 66 90                        	nop
  102a5c: 66 90                        	nop
  102a5e: 66 90                        	nop
  102a60: 66 90                        	nop
  102a62: 66 90                        	nop
  102a64: 66 90                        	nop
  102a66: 66 90                        	nop
  102a68: 66 90                        	nop
  102a6a: 66 90                        	nop
  102a6c: 66 90                        	nop
  102a6e: 66 90                        	nop
  102a70: 66 90                        	nop
  102a72: 66 90                        	nop
  102a74: 66 90                        	nop
  102a76: 66 90                        	nop
  102a78: 66 90                        	nop
  102a7a: 66 90                        	nop
  102a7c: 66 90                        	nop
  102a7e: 66 90                        	nop
  102a80: 66 90                        	nop
  102a82: 66 90                        	nop
  102a84: 66 90                        	nop
  102a86: 66 90                        	nop
  102a88: 66 90                        	nop
  102a8a: 66 90                        	nop
  102a8c: 66 90                        	nop
  102a8e: 66 90                        	nop
  102a90: 66 90                        	nop
  102a92: 66 90                        	nop
  102a94: 66 90                        	nop
  102a96: 66 90                        	nop
  102a98: 66 90                        	nop
  102a9a: 66 90                        	nop
  102a9c: 66 90                        	nop
  102a9e: 66 90                        	nop
  102aa0: 66 90                        	nop
  102aa2: 66 90                        	nop
  102aa4: 66 90                        	nop
  102aa6: 66 90                        	nop
  102aa8: 66 90                        	nop
  102aaa: 66 90                        	nop
  102aac: 66 90                        	nop
  102aae: 66 90                        	nop
  102ab0: 66 90                        	nop
  102ab2: 66 90                        	nop
  102ab4: 66 90                        	nop
  102ab6: 66 90                        	nop
  102ab8: 66 90                        	nop
  102aba: 66 90                        	nop
  102abc: 66 90                        	nop
  102abe: 66 90                        	nop
  102ac0: 66 90                        	nop
  102ac2: 66 90                        	nop
  102ac4: 66 90                        	nop
  102ac6: 66 90                        	nop
  102ac8: 66 90                        	nop
  102aca: 66 90                        	nop
  102acc: 66 90                        	nop
  102ace: 66 90                        	nop
  102ad0: 66 90                        	nop
  102ad2: 66 90                        	nop
  102ad4: 66 90                        	nop
  102ad6: 66 90                        	nop
  102ad8: 66 90                        	nop
  102ada: 66 90                        	nop
  102adc: 66 90                        	nop
  102ade: 66 90                        	nop
  102ae0: 66 90                        	nop
  102ae2: 66 90                        	nop
  102ae4: 66 90                        	nop
  102ae6: 66 90                        	nop
  102ae8: 66 90                        	nop
  102aea: 66 90                        	nop
  102aec: 66 90                        	nop
  102aee: 66 90                        	nop
  102af0: 66 90                        	nop
  102af2: 66 90                        	nop
  102af4: 66 90                        	nop
  102af6: 66 90                        	nop
  102af8: 66 90                        	nop
  102afa: 66 90                        	nop
  102afc: 66 90                        	nop
  102afe: 66 90                        	nop
  102b00: 66 90                        	nop
  102b02: 66 90                        	nop
  102b04: 66 90                        	nop
  102b06: 66 90                        	nop
  102b08: 66 90                        	nop
  102b0a: 66 90                        	nop
  102b0c: 66 90                        	nop
  102b0e: 66 90                        	nop
  102b10: 66 90                        	nop
  102b12: 66 90                        	nop
  102b14: 66 90                        	nop
  102b16: 66 90                        	nop
  102b18: 66 90                        	nop
  102b1a: 66 90                        	nop
  102b1c: 66 90                        	nop
  102b1e: 66 90                        	nop
  102b20: 66 90                        	nop
  102b22: 66 90                        	nop
  102b24: 66 90                        	nop
  102b26: 66 90                        	nop
  102b28: 66 90                        	nop
  102b2a: 66 90                        	nop
  102b2c: 66 90                        	nop
  102b2e: 66 90                        	nop
  102b30: 66 90                        	nop
  102b32: 66 90                        	nop
  102b34: 66 90                        	nop
  102b36: 66 90                        	nop
  102b38: 66 90                        	nop
  102b3a: 66 90                        	nop
  102b3c: 66 90                        	nop
  102b3e: 66 90                        	nop
  102b40: 66 90                        	nop
  102b42: 66 90                        	nop
  102b44: 66 90                        	nop
  102b46: 66 90                        	nop
  102b48: 66 90                        	nop
  102b4a: 66 90                        	nop
  102b4c: 66 90                        	nop
  102b4e: 66 90                        	nop
  102b50: 66 90                        	nop
  102b52: 66 90                        	nop
  102b54: 66 90                        	nop
  102b56: 66 90                        	nop
  102b58: 66 90                        	nop
  102b5a: 66 90                        	nop
  102b5c: 66 90                        	nop
  102b5e: 66 90                        	nop
  102b60: 66 90                        	nop
  102b62: 66 90                        	nop
  102b64: 66 90                        	nop
  102b66: 66 90                        	nop
  102b68: 66 90                        	nop
  102b6a: 66 90                        	nop
  102b6c: 66 90                        	nop
  102b6e: 66 90                        	nop
  102b70: 66 90                        	nop
  102b72: 66 90                        	nop
  102b74: 66 90                        	nop
  102b76: 66 90                        	nop
  102b78: 66 90                        	nop
  102b7a: 66 90                        	nop
  102b7c: 66 90                        	nop
  102b7e: 66 90                        	nop
  102b80: 66 90                        	nop
  102b82: 66 90                        	nop
  102b84: 66 90                        	nop
  102b86: 66 90                        	nop
  102b88: 66 90                        	nop
  102b8a: 66 90                        	nop
  102b8c: 66 90                        	nop
  102b8e: 66 90                        	nop
  102b90: 66 90                        	nop
  102b92: 66 90                        	nop
  102b94: 66 90                        	nop
  102b96: 66 90                        	nop
  102b98: 66 90                        	nop
  102b9a: 66 90                        	nop
  102b9c: 66 90                        	nop
  102b9e: 66 90                        	nop
  102ba0: 66 90                        	nop
  102ba2: 66 90                        	nop
  102ba4: 66 90                        	nop
  102ba6: 66 90                        	nop
  102ba8: 66 90                        	nop
  102baa: 66 90                        	nop
  102bac: 66 90                        	nop
  102bae: 66 90                        	nop
  102bb0: 66 90                        	nop
  102bb2: 66 90                        	nop
  102bb4: 66 90                        	nop
  102bb6: 66 90                        	nop
  102bb8: 66 90                        	nop
  102bba: 66 90                        	nop
  102bbc: 66 90                        	nop
  102bbe: 66 90                        	nop
  102bc0: 66 90                        	nop
  102bc2: 66 90                        	nop
  102bc4: 66 90                        	nop
  102bc6: 66 90                        	nop
  102bc8: 66 90                        	nop
  102bca: 66 90                        	nop
  102bcc: 66 90                        	nop
  102bce: 66 90                        	nop
  102bd0: 66 90                        	nop
  102bd2: 66 90                        	nop
  102bd4: 66 90                        	nop
  102bd6: 66 90                        	nop
  102bd8: 66 90                        	nop
  102bda: 66 90                        	nop
  102bdc: 66 90                        	nop
  102bde: 66 90                        	nop
  102be0: 66 90                        	nop
  102be2: 66 90                        	nop
  102be4: 66 90                        	nop
  102be6: 66 90                        	nop
  102be8: 66 90                        	nop
  102bea: 66 90                        	nop
  102bec: 66 90                        	nop
  102bee: 66 90                        	nop
  102bf0: 66 90                        	nop
  102bf2: 66 90                        	nop
  102bf4: 66 90                        	nop
  102bf6: 66 90                        	nop
  102bf8: 66 90                        	nop
  102bfa: 66 90                        	nop
  102bfc: 66 90                        	nop
  102bfe: 66 90                        	nop
  102c00: 66 90                        	nop
  102c02: 66 90                        	nop
  102c04: 66 90                        	nop
  102c06: 66 90                        	nop
  102c08: 66 90                        	nop
  102c0a: 66 90                        	nop
  102c0c: 66 90                        	nop
  102c0e: 66 90                        	nop
  102c10: 66 90                        	nop
  102c12: 66 90                        	nop
  102c14: 66 90                        	nop
  102c16: 66 90                        	nop
  102c18: 66 90                        	nop
  102c1a: 66 90                        	nop
  102c1c: 66 90                        	nop
  102c1e: 66 90                        	nop
  102c20: 66 90                        	nop
  102c22: 66 90                        	nop
  102c24: 66 90                        	nop
  102c26: 66 90                        	nop
  102c28: 66 90                        	nop
  102c2a: 66 90                        	nop
  102c2c: 66 90                        	nop
  102c2e: 66 90                        	nop
  102c30: 66 90                        	nop
  102c32: 66 90                        	nop
  102c34: 66 90                        	nop
  102c36: 66 90                        	nop
  102c38: 66 90                        	nop
  102c3a: 66 90                        	nop
  102c3c: 66 90                        	nop
  102c3e: 66 90                        	nop
  102c40: 66 90                        	nop
  102c42: 66 90                        	nop
  102c44: 66 90                        	nop
  102c46: 66 90                        	nop
  102c48: 66 90                        	nop
  102c4a: 66 90                        	nop
  102c4c: 66 90                        	nop
  102c4e: 66 90                        	nop
  102c50: 66 90                        	nop
  102c52: 66 90                        	nop
  102c54: 66 90                        	nop
  102c56: 66 90                        	nop
  102c58: 66 90                        	nop
  102c5a: 66 90                        	nop
  102c5c: 66 90                        	nop
  102c5e: 66 90                        	nop
  102c60: 66 90                        	nop
  102c62: 66 90                        	nop
  102c64: 66 90                        	nop
  102c66: 66 90                        	nop
  102c68: 66 90                        	nop
  102c6a: 66 90                        	nop
  102c6c: 66 90                        	nop
  102c6e: 66 90                        	nop
  102c70: 66 90                        	nop
  102c72: 66 90                        	nop
  102c74: 66 90                        	nop
  102c76: 66 90                        	nop
  102c78: 66 90                        	nop
  102c7a: 66 90                        	nop
  102c7c: 66 90                        	nop
  102c7e: 66 90                        	nop
  102c80: 66 90                        	nop
  102c82: 66 90                        	nop
  102c84: 66 90                        	nop
  102c86: 66 90                        	nop
  102c88: 66 90                        	nop
  102c8a: 66 90                        	nop
  102c8c: 66 90                        	nop
  102c8e: 66 90                        	nop
  102c90: 66 90                        	nop
  102c92: 66 90                        	nop
  102c94: 66 90                        	nop
  102c96: 66 90                        	nop
  102c98: 66 90                        	nop
  102c9a: 66 90                        	nop
  102c9c: 66 90                        	nop
  102c9e: 66 90                        	nop
  102ca0: 66 90                        	nop
  102ca2: 66 90                        	nop
  102ca4: 66 90                        	nop
  102ca6: 66 90                        	nop
  102ca8: 66 90                        	nop
  102caa: 66 90                        	nop
  102cac: 66 90                        	nop
  102cae: 66 90                        	nop
  102cb0: 66 90                        	nop
  102cb2: 66 90                        	nop
  102cb4: 66 90                        	nop
  102cb6: 66 90                        	nop
  102cb8: 66 90                        	nop
  102cba: 66 90                        	nop
  102cbc: 66 90                        	nop
  102cbe: 66 90                        	nop
  102cc0: 66 90                        	nop
  102cc2: 66 90                        	nop
  102cc4: 66 90                        	nop
  102cc6: 66 90                        	nop
  102cc8: 66 90                        	nop
  102cca: 66 90                        	nop
  102ccc: 66 90                        	nop
  102cce: 66 90                        	nop
  102cd0: 66 90                        	nop
  102cd2: 66 90                        	nop
  102cd4: 66 90                        	nop
  102cd6: 66 90                        	nop
  102cd8: 66 90                        	nop
  102cda: 66 90                        	nop
  102cdc: 66 90                        	nop
  102cde: 66 90                        	nop
  102ce0: 66 90                        	nop
  102ce2: 66 90                        	nop
  102ce4: 66 90                        	nop
  102ce6: 66 90                        	nop
  102ce8: 66 90                        	nop
  102cea: 66 90                        	nop
  102cec: 66 90                        	nop
  102cee: 66 90                        	nop
  102cf0: 66 90                        	nop
  102cf2: 66 90                        	nop
  102cf4: 66 90                        	nop
  102cf6: 66 90                        	nop
  102cf8: 66 90                        	nop
  102cfa: 66 90                        	nop
  102cfc: 66 90                        	nop
  102cfe: 66 90                        	nop
  102d00: 66 90                        	nop
  102d02: 66 90                        	nop
  102d04: 66 90                        	nop
  102d06: 66 90                        	nop
  102d08: 66 90                        	nop
  102d0a: 66 90                        	nop
  102d0c: 66 90                        	nop
  102d0e: 66 90                        	nop
  102d10: 66 90                        	nop
  102d12: 66 90                        	nop
  102d14: 66 90                        	nop
  102d16: 66 90                        	nop
  102d18: 66 90                        	nop
  102d1a: 66 90                        	nop
  102d1c: 66 90                        	nop
  102d1e: 66 90                        	nop
  102d20: 66 90                        	nop
  102d22: 66 90                        	nop
  102d24: 66 90                        	nop
  102d26: 66 90                        	nop
  102d28: 66 90                        	nop
  102d2a: 66 90                        	nop
  102d2c: 66 90                        	nop
  102d2e: 66 90                        	nop
  102d30: 66 90                        	nop
  102d32: 66 90                        	nop
  102d34: 66 90                        	nop
  102d36: 66 90                        	nop
  102d38: 66 90                        	nop
  102d3a: 66 90                        	nop
  102d3c: 66 90                        	nop
  102d3e: 66 90                        	nop
  102d40: 66 90                        	nop
  102d42: 66 90                        	nop
  102d44: 66 90                        	nop
  102d46: 66 90                        	nop
  102d48: 66 90                        	nop
  102d4a: 66 90                        	nop
  102d4c: 66 90                        	nop
  102d4e: 66 90                        	nop
  102d50: 66 90                        	nop
  102d52: 66 90                        	nop
  102d54: 66 90                        	nop
  102d56: 66 90                        	nop
  102d58: 66 90                        	nop
  102d5a: 66 90                        	nop
  102d5c: 66 90                        	nop
  102d5e: 66 90                        	nop
  102d60: 66 90                        	nop
  102d62: 66 90                        	nop
  102d64: 66 90                        	nop
  102d66: 66 90                        	nop
  102d68: 66 90                        	nop
  102d6a: 66 90                        	nop
  102d6c: 66 90                        	nop
  102d6e: 66 90                        	nop
  102d70: 66 90                        	nop
  102d72: 66 90                        	nop
  102d74: 66 90                        	nop
  102d76: 66 90                        	nop
  102d78: 66 90                        	nop
  102d7a: 66 90                        	nop
  102d7c: 66 90                        	nop
  102d7e: 66 90                        	nop
  102d80: 66 90                        	nop
  102d82: 66 90                        	nop
  102d84: 66 90                        	nop
  102d86: 66 90                        	nop
  102d88: 66 90                        	nop
  102d8a: 66 90                        	nop
  102d8c: 66 90                        	nop
  102d8e: 66 90                        	nop
  102d90: 66 90                        	nop
  102d92: 66 90                        	nop
  102d94: 66 90                        	nop
  102d96: 66 90                        	nop
  102d98: 66 90                        	nop
  102d9a: 66 90                        	nop
  102d9c: 66 90                        	nop
  102d9e: 66 90                        	nop
  102da0: 66 90                        	nop
  102da2: 66 90                        	nop
  102da4: 66 90                        	nop
  102da6: 66 90                        	nop
  102da8: 66 90                        	nop
  102daa: 66 90                        	nop
  102dac: 66 90                        	nop
  102dae: 66 90                        	nop
  102db0: 66 90                        	nop
  102db2: 66 90                        	nop
  102db4: 66 90                        	nop
  102db6: 66 90                        	nop
  102db8: 66 90                        	nop
  102dba: 66 90                        	nop
  102dbc: 66 90                        	nop
  102dbe: 66 90                        	nop
  102dc0: 66 90                        	nop
  102dc2: 66 90                        	nop
  102dc4: 66 90                        	nop
  102dc6: 66 90                        	nop
  102dc8: 66 90                        	nop
  102dca: 66 90                        	nop
  102dcc: 66 90                        	nop
  102dce: 66 90                        	nop
  102dd0: 66 90                        	nop
  102dd2: 66 90                        	nop
  102dd4: 66 90                        	nop
  102dd6: 66 90                        	nop
  102dd8: 66 90                        	nop
  102dda: 66 90                        	nop
  102ddc: 66 90                        	nop
  102dde: 66 90                        	nop
  102de0: 66 90                        	nop
  102de2: 66 90                        	nop
  102de4: 66 90                        	nop
  102de6: 66 90                        	nop
  102de8: 66 90                        	nop
  102dea: 66 90                        	nop
  102dec: 66 90                        	nop
  102dee: 66 90                        	nop
  102df0: 66 90                        	nop
  102df2: 66 90                        	nop
  102df4: 66 90                        	nop
  102df6: 66 90                        	nop
  102df8: 66 90                        	nop
  102dfa: 66 90                        	nop
  102dfc: 66 90                        	nop
  102dfe: 66 90                        	nop
  102e00: 66 90                        	nop
  102e02: 66 90                        	nop
  102e04: 66 90                        	nop
  102e06: 66 90                        	nop
  102e08: 66 90                        	nop
  102e0a: 66 90                        	nop
  102e0c: 66 90                        	nop
  102e0e: 66 90                        	nop
  102e10: 66 90                        	nop
  102e12: 66 90                        	nop
  102e14: 66 90                        	nop
  102e16: 66 90                        	nop
  102e18: 66 90                        	nop
  102e1a: 66 90                        	nop
  102e1c: 66 90                        	nop
  102e1e: 66 90                        	nop
  102e20: 66 90                        	nop
  102e22: 66 90                        	nop
  102e24: 66 90                        	nop
  102e26: 66 90                        	nop
  102e28: 66 90                        	nop
  102e2a: 66 90                        	nop
  102e2c: 66 90                        	nop
  102e2e: 66 90                        	nop
  102e30: 66 90                        	nop
  102e32: 66 90                        	nop
  102e34: 66 90                        	nop
  102e36: 66 90                        	nop
  102e38: 66 90                        	nop
  102e3a: 66 90                        	nop
  102e3c: 66 90                        	nop
  102e3e: 66 90                        	nop
  102e40: 66 90                        	nop
  102e42: 66 90                        	nop
  102e44: 66 90                        	nop
  102e46: 66 90                        	nop
  102e48: 66 90                        	nop
  102e4a: 66 90                        	nop
  102e4c: 66 90                        	nop
  102e4e: 66 90                        	nop
  102e50: 66 90                        	nop
  102e52: 66 90                        	nop
  102e54: 66 90                        	nop
  102e56: 66 90                        	nop
  102e58: 66 90                        	nop
  102e5a: 66 90                        	nop
  102e5c: 66 90                        	nop
  102e5e: 66 90                        	nop
  102e60: 66 90                        	nop
  102e62: 66 90                        	nop
  102e64: 66 90                        	nop
  102e66: 66 90                        	nop
  102e68: 66 90                        	nop
  102e6a: 66 90                        	nop
  102e6c: 66 90                        	nop
  102e6e: 66 90                        	nop
  102e70: 66 90                        	nop
  102e72: 66 90                        	nop
  102e74: 66 90                        	nop
  102e76: 66 90                        	nop
  102e78: 66 90                        	nop
  102e7a: 66 90                        	nop
  102e7c: 66 90                        	nop
  102e7e: 66 90                        	nop
  102e80: 66 90                        	nop
  102e82: 66 90                        	nop
  102e84: 66 90                        	nop
  102e86: 66 90                        	nop
  102e88: 66 90                        	nop
  102e8a: 66 90                        	nop
  102e8c: 66 90                        	nop
  102e8e: 66 90                        	nop
  102e90: 66 90                        	nop
  102e92: 66 90                        	nop
  102e94: 66 90                        	nop
  102e96: 66 90                        	nop
  102e98: 66 90                        	nop
  102e9a: 66 90                        	nop
  102e9c: 66 90                        	nop
  102e9e: 66 90                        	nop
  102ea0: 66 90                        	nop
  102ea2: 66 90                        	nop
  102ea4: 66 90                        	nop
  102ea6: 66 90                        	nop
  102ea8: 66 90                        	nop
  102eaa: 66 90                        	nop
  102eac: 66 90                        	nop
  102eae: 66 90                        	nop
  102eb0: 66 90                        	nop
  102eb2: 66 90                        	nop
  102eb4: 66 90                        	nop
  102eb6: 66 90                        	nop
  102eb8: 66 90                        	nop
  102eba: 66 90                        	nop
  102ebc: 66 90                        	nop
  102ebe: 66 90                        	nop
  102ec0: 66 90                        	nop
  102ec2: 66 90                        	nop
  102ec4: 66 90                        	nop
  102ec6: 66 90                        	nop
  102ec8: 66 90                        	nop
  102eca: 66 90                        	nop
  102ecc: 66 90                        	nop
  102ece: 66 90                        	nop
  102ed0: 66 90                        	nop
  102ed2: 66 90                        	nop
  102ed4: 66 90                        	nop
  102ed6: 66 90                        	nop
  102ed8: 66 90                        	nop
  102eda: 66 90                        	nop
  102edc: 66 90                        	nop
  102ede: 66 90                        	nop
  102ee0: 66 90                        	nop
  102ee2: 66 90                        	nop
  102ee4: 66 90                        	nop
  102ee6: 66 90                        	nop
  102ee8: 66 90                        	nop
  102eea: 66 90                        	nop
  102eec: 66 90                        	nop
  102eee: 66 90                        	nop
  102ef0: 66 90                        	nop
  102ef2: 66 90                        	nop
  102ef4: 66 90                        	nop
  102ef6: 66 90                        	nop
  102ef8: 66 90                        	nop
  102efa: 66 90                        	nop
  102efc: 66 90                        	nop
  102efe: 66 90                        	nop
  102f00: 66 90                        	nop
  102f02: 66 90                        	nop
  102f04: 66 90                        	nop
  102f06: 66 90                        	nop
  102f08: 66 90                        	nop
  102f0a: 66 90                        	nop
  102f0c: 66 90                        	nop
  102f0e: 66 90                        	nop
  102f10: 66 90                        	nop
  102f12: 66 90                        	nop
  102f14: 66 90                        	nop
  102f16: 66 90                        	nop
  102f18: 66 90                        	nop
  102f1a: 66 90                        	nop
  102f1c: 66 90                        	nop
  102f1e: 66 90                        	nop
  102f20: 66 90                        	nop
  102f22: 66 90                        	nop
  102f24: 66 90                        	nop
  102f26: 66 90                        	nop
  102f28: 66 90                        	nop
  102f2a: 66 90                        	nop
  102f2c: 66 90                        	nop
  102f2e: 66 90                        	nop
  102f30: 66 90                        	nop
  102f32: 66 90                        	nop
  102f34: 66 90                        	nop
  102f36: 66 90                        	nop
  102f38: 66 90                        	nop
  102f3a: 66 90                        	nop
  102f3c: 66 90                        	nop
  102f3e: 66 90                        	nop
  102f40: 66 90                        	nop
  102f42: 66 90                        	nop
  102f44: 66 90                        	nop
  102f46: 66 90                        	nop
  102f48: 66 90                        	nop
  102f4a: 66 90                        	nop
  102f4c: 66 90                        	nop
  102f4e: 66 90                        	nop
  102f50: 66 90                        	nop
  102f52: 66 90                        	nop
  102f54: 66 90                        	nop
  102f56: 66 90                        	nop
  102f58: 66 90                        	nop
  102f5a: 66 90                        	nop
  102f5c: 66 90                        	nop
  102f5e: 66 90                        	nop
  102f60: 66 90                        	nop
  102f62: 66 90                        	nop
  102f64: 66 90                        	nop
  102f66: 66 90                        	nop
  102f68: 66 90                        	nop
  102f6a: 66 90                        	nop
  102f6c: 66 90                        	nop
  102f6e: 66 90                        	nop
  102f70: 66 90                        	nop
  102f72: 66 90                        	nop
  102f74: 66 90                        	nop
  102f76: 66 90                        	nop
  102f78: 66 90                        	nop
  102f7a: 66 90                        	nop
  102f7c: 66 90                        	nop
  102f7e: 66 90                        	nop
  102f80: 66 90                        	nop
  102f82: 66 90                        	nop
  102f84: 66 90                        	nop
  102f86: 66 90                        	nop
  102f88: 66 90                        	nop
  102f8a: 66 90                        	nop
  102f8c: 66 90                        	nop
  102f8e: 66 90                        	nop
  102f90: 66 90                        	nop
  102f92: 66 90                        	nop
  102f94: 66 90                        	nop
  102f96: 66 90                        	nop
  102f98: 66 90                        	nop
  102f9a: 66 90                        	nop
  102f9c: 66 90                        	nop
  102f9e: 66 90                        	nop
  102fa0: 66 90                        	nop
  102fa2: 66 90                        	nop
  102fa4: 66 90                        	nop
  102fa6: 66 90                        	nop
  102fa8: 66 90                        	nop
  102faa: 66 90                        	nop
  102fac: 66 90                        	nop
  102fae: 66 90                        	nop
  102fb0: 66 90                        	nop
  102fb2: 66 90                        	nop
  102fb4: 66 90                        	nop
  102fb6: 66 90                        	nop
  102fb8: 66 90                        	nop
  102fba: 66 90                        	nop
  102fbc: 66 90                        	nop
  102fbe: 66 90                        	nop
  102fc0: 66 90                        	nop
  102fc2: 66 90                        	nop
  102fc4: 66 90                        	nop
  102fc6: 66 90                        	nop
  102fc8: 66 90                        	nop
  102fca: 66 90                        	nop
  102fcc: 66 90                        	nop
  102fce: 66 90                        	nop
  102fd0: 66 90                        	nop
  102fd2: 66 90                        	nop
  102fd4: 66 90                        	nop
  102fd6: 66 90                        	nop
  102fd8: 66 90                        	nop
  102fda: 66 90                        	nop
  102fdc: 66 90                        	nop
  102fde: 66 90                        	nop
  102fe0: 66 90                        	nop
  102fe2: 66 90                        	nop
  102fe4: 66 90                        	nop
  102fe6: 66 90                        	nop
  102fe8: 66 90                        	nop
  102fea: 66 90                        	nop
  102fec: 66 90                        	nop
  102fee: 66 90                        	nop
  102ff0: 66 90                        	nop
  102ff2: 66 90                        	nop
  102ff4: 66 90                        	nop
  102ff6: 66 90                        	nop
  102ff8: 66 90                        	nop
  102ffa: 66 90                        	nop
  102ffc: 66 90                        	nop
  102ffe: 66 90                        	nop
